(dp0
(I35805891
I2
tp1
I1
s(I5947137
I3
tp2
I1
s(I28823052
I1
tp3
I0
s(I33103802
I1
tp4
I0
s(I31654215
I1
tp5
I1
s(I15580917
I1
tp6
I1
s(I2983959
I1
tp7
I1
s(I30936020
I1
tp8
I1
s(I21126108
I0
tp9
I1
s(I4413798
I0
tp10
I1
s(I227461
I1
tp11
I1
s(I33402355
I3
tp12
I1
s(I24697061
I0
tp13
I1
s(I2658026
I0
tp14
I1
s(I12972595
I1
tp15
I1
s(I10255972
I1
tp16
I0
s(I26983187
I11
tp17
I0
s(I37079175
I2
tp18
I0
s(I33144460
I2
tp19
I0
s(I24172896
I0
tp20
I0
s(I32174535
I0
tp21
I1
s(I21343401
I1
tp22
I1
s(I2255177
I2
tp23
I0
s(I25277092
I1
tp24
I1
s(I17086278
I1
tp25
I1
s(I19928482
I1
tp26
I0
s(I23429968
I1
tp27
I1
s(I18535645
I1
tp28
I1
s(I17559933
I2
tp29
I0
s(I12175964
I0
tp30
I1
s(I11514277
I1
tp31
I0
s(I6154424
I0
tp32
I0
s(I10562180
I1
tp33
I0
s(I23587296
I1
tp34
I0
s(I35318700
I2
tp35
I1
s(I32480553
I0
tp36
I1
s(I1869034
I1
tp37
I1
s(I10001301
I0
tp38
I1
s(I37605612
I0
tp39
I0
s(I30620595
I1
tp40
I0
s(I19382088
I0
tp41
I0
s(I8780912
I1
tp42
I0
s(I28208430
I1
tp43
I1
s(I1060193
I3
tp44
I0
s(I32946908
I1
tp45
I0
s(I34478011
I5
tp46
I0
s(I2882308
I2
tp47
I1
s(I28658817
I0
tp48
I1
s(I36845683
I1
tp49
I0
s(I35526501
I2
tp50
I0
s(I23248583
I2
tp51
I0
s(I30196224
I1
tp52
I1
s(I15516876
I2
tp53
I1
s(I16897609
I0
tp54
I0
s(I27032670
I0
tp55
I1
s(I36558005
I0
tp56
I1
s(I28306700
I0
tp57
I1
s(I36282772
I2
tp58
I1
s(I3947654
I1
tp59
I1
s(I16367823
I0
tp60
I1
s(I29356022
I0
tp61
I0
s(I933612
I5
tp62
I0
s(I33607716
I5
tp63
I0
s(I10112614
I2
tp64
I1
s(I28500718
I0
tp65
I0
s(I6237378
I2
tp66
I0
s(I5701962
I0
tp67
I1
s(I17288571
I2
tp68
I1
s(I26427128
I0
tp69
I0
s(I35678083
I0
tp70
I1
s(I28868384
I1
tp71
I0
s(I9419848
I2
tp72
I0
s(I3458542
I5
tp73
I0
s(I13497170
I2
tp74
I0
s(I6253617
I0
tp75
I1
s(I19596424
I0
tp76
I0
s(I16123732
I1
tp77
I1
s(I8096798
I1
tp78
I1
s(I3738269
I0
tp79
I0
s(I10263217
I1
tp80
I1
s(I24195234
I0
tp81
I1
s(I27947419
I1
tp82
I0
s(I10993692
I1
tp83
I1
s(I27827982
I0
tp84
I1
s(I37758227
I0
tp85
I0
s(I30506746
I2
tp86
I1
s(I34773317
I3
tp87
I0
s(I29514238
I1
tp88
I1
s(I16615630
I2
tp89
I0
s(I20663162
I1
tp90
I0
s(I31847577
I4
tp91
I0
s(I20524146
I2
tp92
I0
s(I4797704
I1
tp93
I0
s(I34845096
I0
tp94
I0
s(I37492239
I0
tp95
I1
s(I29484529
I1
tp96
I0
s(I28566041
I0
tp97
I0
s(I22616944
I0
tp98
I1
s(I13047895
I1
tp99
I0
s(I23961648
I1
tp100
I0
s(I7096090
I0
tp101
I0
s(I15793715
I0
tp102
I1
s(I26725669
I1
tp103
I0
s(I5678136
I0
tp104
I1
s(I6669828
I1
tp105
I0
s(I35580801
I1
tp106
I1
s(I25480433
I1
tp107
I1
s(I22649851
I0
tp108
I1
s(I20445672
I3
tp109
I0
s(I36765952
I0
tp110
I1
s(I28687087
I2
tp111
I0
s(I31011565
I1
tp112
I1
s(I10920180
I2
tp113
I0
s(I24103624
I0
tp114
I1
s(I32966627
I2
tp115
I1
s(I28617958
I2
tp116
I0
s(I555344
I2
tp117
I0
s(I10963952
I1
tp118
I1
s(I23206062
I1
tp119
I1
s(I21507319
I0
tp120
I1
s(I29451598
I0
tp121
I1
s(I10040037
I1
tp122
I0
s(I30156357
I1
tp123
I0
s(I12184015
I1
tp124
I1
s(I28199359
I0
tp125
I0
s(I18679264
I3
tp126
I0
s(I31572425
I1
tp127
I1
s(I30133281
I0
tp128
I1
s(I24084817
I4
tp129
I0
s(I2389846
I2
tp130
I1
s(I6315244
I1
tp131
I0
s(I21720721
I0
tp132
I1
s(I34403494
I0
tp133
I1
s(I17809274
I2
tp134
I1
s(I34970283
I0
tp135
I1
s(I14363016
I1
tp136
I0
s(I1938894
I1
tp137
I1
s(I6367051
I1
tp138
I0
s(I29497029
I0
tp139
I1
s(I899138
I2
tp140
I0
s(I1933784
I1
tp141
I0
s(I8422308
I2
tp142
I0
s(I32161369
I2
tp143
I0
s(I33857555
I1
tp144
I0
s(I7171140
I1
tp145
I1
s(I519633
I0
tp146
I1
s(I15635341
I0
tp147
I1
s(I36086075
I0
tp148
I0
s(I26126880
I1
tp149
I0
s(I28020874
I1
tp150
I0
s(I30795450
I1
tp151
I1
s(I23613138
I2
tp152
I0
s(I4402383
I3
tp153
I1
s(I33875238
I1
tp154
I0
s(I33575575
I1
tp155
I1
s(I27857842
I7
tp156
I0
s(I20672238
I1
tp157
I0
s(I34512219
I1
tp158
I0
s(I36364188
I1
tp159
I1
s(I33607716
I3
tp160
I0
s(I37212307
I0
tp161
I1
s(I11078122
I0
tp162
I1
s(I30960440
I4
tp163
I0
s(I17250660
I1
tp164
I1
s(I21329988
I0
tp165
I1
s(I9406400
I1
tp166
I0
s(I28330317
I1
tp167
I1
s(I28500524
I1
tp168
I1
s(I35281863
I1
tp169
I0
s(I23312803
I0
tp170
I1
s(I28431519
I4
tp171
I0
s(I16522362
I0
tp172
I1
s(I3337512
I0
tp173
I1
s(I37048689
I1
tp174
I0
s(I17103701
I3
tp175
I0
s(I3234114
I0
tp176
I1
s(I29643161
I0
tp177
I0
s(I34871024
I0
tp178
I0
s(I36554940
I1
tp179
I1
s(I9706041
I1
tp180
I1
s(I21212484
I3
tp181
I0
s(I23271192
I1
tp182
I1
s(I29058135
I0
tp183
I1
s(I33140945
I3
tp184
I0
s(I36672440
I0
tp185
I1
s(I34400455
I1
tp186
I1
s(I14258317
I4
tp187
I1
s(I20388992
I0
tp188
I1
s(I34546949
I0
tp189
I1
s(I26321557
I0
tp190
I1
s(I36753799
I1
tp191
I1
s(I32231491
I0
tp192
I1
s(I18281342
I2
tp193
I1
s(I7407934
I1
tp194
I1
s(I27743031
I2
tp195
I0
s(I7821265
I1
tp196
I0
s(I17243403
I0
tp197
I0
s(I706813
I1
tp198
I1
s(I36731365
I0
tp199
I1
s(I23025497
I1
tp200
I1
s(I21080357
I0
tp201
I0
s(I2857634
I2
tp202
I0
s(I24108842
I0
tp203
I1
s(I32981875
I1
tp204
I1
s(I12824228
I1
tp205
I1
s(I27491734
I0
tp206
I0
s(I9542738
I1
tp207
I1
s(I36071592
I2
tp208
I0
s(I34079643
I0
tp209
I0
s(I3458542
I2
tp210
I0
s(I22362010
I1
tp211
I1
s(I23429426
I2
tp212
I1
s(I519633
I1
tp213
I1
s(I31370701
I1
tp214
I1
s(I9668867
I1
tp215
I0
s(I2397295
I1
tp216
I0
s(I14815365
I0
tp217
I1
s(I33069366
I4
tp218
I0
s(I29870041
I0
tp219
I0
s(I22023193
I2
tp220
I0
s(I21668606
I4
tp221
I0
s(I14536778
I2
tp222
I1
s(I20725343
I0
tp223
I0
s(I2005759
I1
tp224
I0
s(I11668603
I0
tp225
I1
s(I33296707
I2
tp226
I1
s(I35678083
I1
tp227
I1
s(I15425455
I2
tp228
I0
s(I13953964
I2
tp229
I0
s(I23613138
I0
tp230
I1
s(I30002261
I0
tp231
I0
s(I18472262
I0
tp232
I0
s(I10843549
I0
tp233
I1
s(I18286362
I2
tp234
I0
s(I36719792
I1
tp235
I0
s(I28677840
I3
tp236
I0
s(I33003547
I1
tp237
I0
s(I33759539
I1
tp238
I1
s(I17910359
I1
tp239
I1
s(I7877282
I0
tp240
I0
s(I20582840
I0
tp241
I1
s(I25269476
I1
tp242
I1
s(I18244791
I0
tp243
I1
s(I20857188
I2
tp244
I0
s(I16056574
I1
tp245
I0
s(I26265015
I0
tp246
I0
s(I27054358
I2
tp247
I1
s(I20198951
I1
tp248
I1
s(I27024392
I1
tp249
I1
s(I34114554
I0
tp250
I0
s(I2572099
I1
tp251
I0
s(I1448820
I1
tp252
I0
s(I8345190
I0
tp253
I0
s(I14692029
I0
tp254
I1
s(I37397296
I0
tp255
I1
s(I30229104
I0
tp256
I1
s(I18646076
I1
tp257
I0
s(I3254713
I1
tp258
I0
s(I26562487
I0
tp259
I1
s(I36572221
I2
tp260
I0
s(I29036344
I0
tp261
I0
s(I37417157
I2
tp262
I0
s(I20825173
I5
tp263
I0
s(I16142829
I1
tp264
I0
s(I3986345
I0
tp265
I1
s(I34030902
I2
tp266
I0
s(I36559053
I1
tp267
I1
s(I12744136
I0
tp268
I0
s(I24216198
I0
tp269
I1
s(I20470749
I0
tp270
I1
s(I34271014
I3
tp271
I0
s(I25068002
I0
tp272
I0
s(I12576313
I0
tp273
I0
s(I2534786
I3
tp274
I0
s(I5276837
I0
tp275
I1
s(I35619038
I0
tp276
I1
s(I36524627
I0
tp277
I1
s(I30209723
I0
tp278
I0
s(I20431617
I0
tp279
I0
s(I11488877
I0
tp280
I1
s(I22912351
I1
tp281
I0
s(I21439948
I5
tp282
I0
s(I27884051
I1
tp283
I0
s(I28267563
I4
tp284
I1
s(I24717673
I1
tp285
I1
s(I36974140
I2
tp286
I0
s(I31021283
I0
tp287
I1
s(I34683678
I2
tp288
I0
s(I14001382
I2
tp289
I0
s(I30411388
I1
tp290
I0
s(I27746297
I1
tp291
I1
s(I34601770
I1
tp292
I1
s(I18765340
I0
tp293
I1
s(I24072567
I0
tp294
I1
s(I19882621
I4
tp295
I0
s(I121025
I1
tp296
I1
s(I34596082
I1
tp297
I1
s(I23866378
I2
tp298
I1
s(I30242208
I1
tp299
I0
s(I36835793
I5
tp300
I0
s(I8419817
I0
tp301
I1
s(I31393692
I4
tp302
I0
s(I1794346
I1
tp303
I1
s(I12379529
I1
tp304
I0
s(I34456661
I0
tp305
I0
s(I20857188
I4
tp306
I0
s(I14720912
I2
tp307
I1
s(I21298191
I1
tp308
I1
s(I11897977
I0
tp309
I1
s(I35261899
I1
tp310
I0
s(I32896987
I4
tp311
I0
s(I34556645
I0
tp312
I1
s(I28654483
I0
tp313
I1
s(I21314143
I3
tp314
I1
s(I5185944
I0
tp315
I0
s(I25765631
I0
tp316
I1
s(I24928086
I0
tp317
I1
s(I29935056
I2
tp318
I1
s(I31704411
I0
tp319
I0
s(I26683175
I3
tp320
I0
s(I10460286
I1
tp321
I1
s(I26922284
I1
tp322
I0
s(I16421050
I1
tp323
I1
s(I1767565
I3
tp324
I0
s(I21223269
I2
tp325
I0
s(I24269756
I0
tp326
I1
s(I30904903
I1
tp327
I0
s(I21756477
I0
tp328
I0
s(I14076207
I1
tp329
I0
s(I32953680
I1
tp330
I1
s(I36241474
I0
tp331
I1
s(I14407563
I1
tp332
I0
s(I25024087
I0
tp333
I1
s(I26511109
I0
tp334
I1
s(I15329797
I0
tp335
I1
s(I33477811
I0
tp336
I1
s(I34244726
I0
tp337
I0
s(I26430002
I1
tp338
I0
s(I29974139
I0
tp339
I0
s(I25286811
I0
tp340
I1
s(I33037416
I3
tp341
I0
s(I5300387
I1
tp342
I1
s(I31650674
I3
tp343
I0
s(I30641097
I1
tp344
I0
s(I27793543
I1
tp345
I0
s(I35254886
I1
tp346
I0
s(I32966627
I1
tp347
I1
s(I34563454
I0
tp348
I0
s(I4339273
I0
tp349
I1
s(I7172290
I1
tp350
I0
s(I23059398
I0
tp351
I1
s(I25690354
I7
tp352
I0
s(I36336637
I1
tp353
I1
s(I37501075
I2
tp354
I0
s(I3637419
I1
tp355
I0
s(I33705180
I1
tp356
I1
s(I32161369
I1
tp357
I1
s(I24145957
I0
tp358
I1
s(I30960440
I1
tp359
I0
s(I18474538
I0
tp360
I0
s(I20024490
I0
tp361
I1
s(I24427828
I4
tp362
I0
s(I30329252
I1
tp363
I0
s(I9242450
I1
tp364
I0
s(I36949277
I6
tp365
I0
s(I12059634
I0
tp366
I1
s(I19529825
I3
tp367
I0
s(I2470764
I1
tp368
I0
s(I5530857
I1
tp369
I0
s(I35373082
I1
tp370
I0
s(I25047254
I4
tp371
I0
s(I26563683
I0
tp372
I1
s(I32244565
I1
tp373
I1
s(I16155921
I0
tp374
I1
s(I36804586
I0
tp375
I0
s(I19665491
I2
tp376
I0
s(I16862690
I1
tp377
I1
s(I32148804
I1
tp378
I1
s(I5761617
I2
tp379
I0
s(I32379895
I3
tp380
I1
s(I33927174
I2
tp381
I0
s(I15009180
I0
tp382
I1
s(I19641162
I0
tp383
I1
s(I15283478
I1
tp384
I0
s(I14622698
I3
tp385
I0
s(I21896326
I1
tp386
I1
s(I27031053
I0
tp387
I1
s(I32182116
I0
tp388
I0
s(I15547217
I1
tp389
I0
s(I29392606
I1
tp390
I1
s(I14940338
I3
tp391
I0
s(I9969684
I3
tp392
I1
s(I4951751
I1
tp393
I0
s(I12329807
I3
tp394
I0
s(I28417585
I0
tp395
I0
s(I18802249
I3
tp396
I1
s(I24593478
I0
tp397
I1
s(I34906231
I2
tp398
I1
s(I25859572
I0
tp399
I1
s(I20670334
I0
tp400
I1
s(I19784235
I0
tp401
I1
s(I17387219
I2
tp402
I0
s(I26277322
I5
tp403
I0
s(I27193884
I1
tp404
I1
s(I3375374
I0
tp405
I0
s(I35580801
I2
tp406
I0
s(I4534486
I2
tp407
I1
s(I17866724
I1
tp408
I1
s(I6046049
I1
tp409
I1
s(I26286980
I0
tp410
I1
s(I25344576
I1
tp411
I0
s(I30909414
I4
tp412
I0
s(I16515465
I0
tp413
I1
s(I17811168
I0
tp414
I1
s(I10156909
I1
tp415
I0
s(I10126668
I0
tp416
I0
s(I37630714
I0
tp417
I1
s(I33354950
I1
tp418
I0
s(I37258152
I0
tp419
I1
s(I19221073
I0
tp420
I1
s(I36144303
I1
tp421
I1
s(I35389648
I1
tp422
I1
s(I4219843
I0
tp423
I1
s(I8950809
I0
tp424
I1
s(I4975563
I1
tp425
I1
s(I25467360
I5
tp426
I0
s(I28332217
I1
tp427
I0
s(I34585582
I0
tp428
I0
s(I17374553
I2
tp429
I1
s(I35208997
I1
tp430
I0
s(I26934349
I0
tp431
I1
s(I22959268
I0
tp432
I0
s(I973481
I0
tp433
I0
s(I27216950
I2
tp434
I1
s(I11944826
I1
tp435
I0
s(I30068271
I0
tp436
I1
s(I1527689
I3
tp437
I0
s(I27491988
I1
tp438
I0
s(I2255177
I0
tp439
I0
s(I16773583
I1
tp440
I0
s(I36409213
I1
tp441
I0
s(I35011168
I0
tp442
I1
s(I3234114
I1
tp443
I0
s(I24129445
I0
tp444
I0
s(I24319973
I1
tp445
I0
s(I23575195
I0
tp446
I0
s(I13382774
I1
tp447
I0
s(I24918515
I1
tp448
I1
s(I7522721
I0
tp449
I1
s(I34683678
I0
tp450
I1
s(I37091273
I0
tp451
I0
s(I22118136
I0
tp452
I1
s(I35209114
I1
tp453
I1
s(I20215266
I0
tp454
I0
s(I14601544
I1
tp455
I0
s(I11242667
I0
tp456
I0
s(I35488781
I0
tp457
I1
s(I19552183
I1
tp458
I0
s(I10870736
I0
tp459
I1
s(I16965782
I1
tp460
I1
s(I29351492
I1
tp461
I0
s(I20846235
I3
tp462
I0
s(I36458482
I1
tp463
I1
s(I14144315
I0
tp464
I0
s(I18325280
I1
tp465
I1
s(I7933596
I4
tp466
I0
s(I22693260
I0
tp467
I1
s(I10040037
I5
tp468
I0
s(I22739971
I0
tp469
I1
s(I18631669
I1
tp470
I0
s(I19923464
I0
tp471
I0
s(I3257619
I4
tp472
I0
s(I21377990
I0
tp473
I1
s(I35205400
I0
tp474
I1
s(I37042635
I0
tp475
I1
s(I15062205
I1
tp476
I0
s(I13416327
I1
tp477
I1
s(I6611563
I1
tp478
I1
s(I31941020
I1
tp479
I0
s(I17368930
I2
tp480
I0
s(I3821957
I1
tp481
I0
s(I17636790
I1
tp482
I0
s(I35561635
I1
tp483
I0
s(I2305115
I0
tp484
I1
s(I14047979
I0
tp485
I0
s(I9504638
I1
tp486
I1
s(I31105362
I3
tp487
I0
s(I11179879
I1
tp488
I0
s(I31499985
I0
tp489
I1
s(I24024966
I2
tp490
I0
s(I1389180
I3
tp491
I0
s(I16530710
I0
tp492
I1
s(I22518000
I0
tp493
I1
s(I8605189
I0
tp494
I0
s(I24787224
I1
tp495
I0
s(I29998052
I2
tp496
I1
s(I1060193
I0
tp497
I1
s(I34569966
I2
tp498
I1
s(I4631601
I0
tp499
I1
s(I17334702
I0
tp500
I0
s(I4659579
I0
tp501
I1
s(I35197854
I1
tp502
I1
s(I4397859
I1
tp503
I0
s(I30506746
I1
tp504
I0
s(I29415538
I0
tp505
I1
s(I34505283
I0
tp506
I1
s(I22741040
I3
tp507
I0
s(I18696264
I0
tp508
I1
s(I22750555
I1
tp509
I0
s(I7933596
I3
tp510
I0
s(I30406324
I0
tp511
I0
s(I34576433
I2
tp512
I1
s(I34769801
I2
tp513
I0
s(I17270318
I1
tp514
I0
s(I10636203
I1
tp515
I0
s(I33223682
I1
tp516
I1
s(I23866378
I0
tp517
I0
s(I17762515
I0
tp518
I0
s(I1794346
I0
tp519
I1
s(I17252056
I0
tp520
I1
s(I34155132
I1
tp521
I0
s(I21073086
I1
tp522
I0
s(I34419926
I2
tp523
I0
s(I20622240
I0
tp524
I0
s(I35774261
I0
tp525
I0
s(I28665356
I0
tp526
I1
s(I9410760
I1
tp527
I0
s(I34286165
I1
tp528
I0
s(I8652136
I0
tp529
I1
s(I28198883
I0
tp530
I0
s(I28486550
I1
tp531
I0
s(I36923865
I0
tp532
I0
s(I36041797
I0
tp533
I1
s(I34463966
I1
tp534
I0
s(I16980554
I0
tp535
I0
s(I31842707
I1
tp536
I0
s(I14891190
I0
tp537
I1
s(I22384398
I0
tp538
I1
s(I12667537
I0
tp539
I1
s(I15668416
I0
tp540
I0
s(I4006970
I1
tp541
I0
s(I6687619
I0
tp542
I1
s(I28387109
I1
tp543
I0
s(I28104377
I0
tp544
I0
s(I20975430
I0
tp545
I0
s(I5722767
I1
tp546
I0
s(I24780464
I1
tp547
I0
s(I17870242
I0
tp548
I1
s(I34374393
I0
tp549
I0
s(I13390315
I1
tp550
I0
s(I30801180
I1
tp551
I1
s(I33099417
I1
tp552
I1
s(I6220490
I1
tp553
I0
s(I6102103
I1
tp554
I0
s(I35199556
I2
tp555
I0
s(I25923521
I0
tp556
I0
s(I27216950
I1
tp557
I0
s(I12102342
I1
tp558
I0
s(I36579996
I5
tp559
I0
s(I14154851
I2
tp560
I1
s(I19908167
I0
tp561
I1
s(I15089310
I0
tp562
I1
s(I34672986
I1
tp563
I0
s(I35775207
I1
tp564
I0
s(I18114415
I3
tp565
I0
s(I34930630
I1
tp566
I0
s(I14720912
I4
tp567
I1
s(I30507442
I4
tp568
I0
s(I30683325
I0
tp569
I1
s(I10610592
I2
tp570
I1
s(I25002150
I2
tp571
I0
s(I33139927
I0
tp572
I1
s(I26983187
I4
tp573
I0
s(I34146679
I1
tp574
I1
s(I10805846
I1
tp575
I0
s(I17774547
I1
tp576
I1
s(I19199869
I6
tp577
I0
s(I14555771
I1
tp578
I0
s(I33928554
I5
tp579
I0
s(I544923
I1
tp580
I0
s(I6852394
I1
tp581
I0
s(I24018965
I0
tp582
I0
s(I32907015
I1
tp583
I0
s(I19917545
I2
tp584
I1
s(I26700006
I1
tp585
I1
s(I13701374
I2
tp586
I0
s(I956820
I1
tp587
I0
s(I19618514
I4
tp588
I0
s(I19830594
I1
tp589
I1
s(I23310630
I3
tp590
I0
s(I36798227
I2
tp591
I1
s(I31440326
I2
tp592
I0
s(I34931548
I1
tp593
I1
s(I22953550
I0
tp594
I0
s(I31567882
I1
tp595
I1
s(I33711511
I1
tp596
I0
s(I5464504
I1
tp597
I0
s(I25664682
I0
tp598
I0
s(I29799542
I0
tp599
I1
s(I22769503
I1
tp600
I0
s(I32537153
I2
tp601
I0
s(I34117408
I0
tp602
I0
s(I3575359
I1
tp603
I0
s(I4554767
I2
tp604
I0
s(I5909816
I0
tp605
I1
s(I31562641
I0
tp606
I1
s(I22696168
I0
tp607
I1
s(I21500596
I1
tp608
I0
s(I1008038
I0
tp609
I0
s(I20414562
I1
tp610
I0
s(I21217108
I0
tp611
I1
s(I31404238
I2
tp612
I0
s(I35867650
I0
tp613
I1
s(I26666329
I0
tp614
I1
s(I34141855
I2
tp615
I1
s(I26911426
I0
tp616
I1
s(I37154201
I2
tp617
I1
s(I33021916
I1
tp618
I0
s(I13839905
I0
tp619
I1
s(I26279903
I0
tp620
I1
s(I27947419
I3
tp621
I0
s(I14421133
I0
tp622
I1
s(I19888255
I1
tp623
I0
s(I25047254
I3
tp624
I0
s(I36799190
I3
tp625
I0
s(I11676649
I0
tp626
I1
s(I36061608
I0
tp627
I1
s(I35609991
I2
tp628
I1
s(I18817616
I0
tp629
I1
s(I21906759
I1
tp630
I1
s(I28754280
I1
tp631
I1
s(I13562613
I1
tp632
I0
s(I21106965
I0
tp633
I1
s(I37374947
I0
tp634
I1
s(I18062466
I1
tp635
I1
s(I21159782
I0
tp636
I1
s(I17203403
I0
tp637
I1
s(I29112610
I0
tp638
I0
s(I34585582
I1
tp639
I0
s(I28677840
I0
tp640
I1
s(I21532471
I0
tp641
I1
s(I27458073
I1
tp642
I0
s(I15398904
I1
tp643
I1
s(I21919877
I1
tp644
I1
s(I14383937
I0
tp645
I1
s(I6624152
I0
tp646
I1
s(I18787830
I3
tp647
I1
s(I23231840
I0
tp648
I1
s(I11984684
I1
tp649
I1
s(I11939631
I2
tp650
I1
s(I26277322
I3
tp651
I0
s(I15649257
I3
tp652
I0
s(I36572221
I0
tp653
I0
s(I27996151
I1
tp654
I1
s(I9668867
I0
tp655
I1
s(I9575384
I3
tp656
I0
s(I26205922
I3
tp657
I0
s(I15238389
I1
tp658
I1
s(I24941665
I0
tp659
I1
s(I3306189
I0
tp660
I1
s(I11313599
I1
tp661
I0
s(I20977408
I1
tp662
I1
s(I24747996
I2
tp663
I0
s(I28438247
I0
tp664
I1
s(I682504
I2
tp665
I0
s(I26871083
I5
tp666
I0
s(I9419848
I0
tp667
I0
s(I19945525
I1
tp668
I0
s(I26450673
I0
tp669
I0
s(I25959543
I1
tp670
I0
s(I29910229
I2
tp671
I0
s(I32940738
I1
tp672
I1
s(I25244751
I1
tp673
I0
s(I21332785
I2
tp674
I0
s(I8072755
I0
tp675
I1
s(I19844558
I0
tp676
I1
s(I16782291
I0
tp677
I1
s(I4910789
I1
tp678
I0
s(I4554767
I1
tp679
I0
s(I34799167
I0
tp680
I0
s(I18082130
I1
tp681
I1
s(I14582852
I0
tp682
I1
s(I34914655
I0
tp683
I0
s(I11691679
I0
tp684
I0
s(I21833068
I1
tp685
I0
s(I21175455
I0
tp686
I0
s(I20974696
I0
tp687
I1
s(I15721679
I0
tp688
I0
s(I32792411
I3
tp689
I0
s(I37079175
I4
tp690
I0
s(I24269756
I1
tp691
I1
s(I34503246
I1
tp692
I0
s(I31230972
I1
tp693
I0
s(I15649257
I4
tp694
I0
s(I11827100
I0
tp695
I0
s(I34243214
I3
tp696
I0
s(I21505354
I0
tp697
I1
s(I14601544
I4
tp698
I0
s(I15510367
I0
tp699
I0
s(I32403846
I1
tp700
I0
s(I22880882
I1
tp701
I0
s(I31146021
I3
tp702
I0
s(I35431172
I5
tp703
I0
s(I10437805
I1
tp704
I0
s(I35619038
I1
tp705
I0
s(I31014848
I0
tp706
I1
s(I18386302
I0
tp707
I0
s(I6762695
I1
tp708
I1
s(I17211188
I1
tp709
I1
s(I4808753
I0
tp710
I1
s(I31617530
I2
tp711
I1
s(I32316244
I1
tp712
I0
s(I35787294
I1
tp713
I0
s(I15820788
I0
tp714
I0
s(I13953964
I4
tp715
I0
s(I21111836
I1
tp716
I0
s(I24269756
I3
tp717
I0
s(I1869034
I0
tp718
I1
s(I37299064
I1
tp719
I1
s(I30053381
I1
tp720
I0
s(I30683301
I2
tp721
I0
s(I23246125
I0
tp722
I1
s(I5947137
I2
tp723
I1
s(I28823052
I2
tp724
I0
s(I18024402
I3
tp725
I1
s(I13793694
I0
tp726
I1
s(I15580917
I0
tp727
I1
s(I33042988
I0
tp728
I0
s(I33402355
I2
tp729
I1
s(I30507442
I2
tp730
I0
s(I12972595
I0
tp731
I1
s(I870652
I1
tp732
I1
s(I26983187
I10
tp733
I0
s(I11691679
I1
tp734
I0
s(I18497810
I0
tp735
I1
s(I27743031
I0
tp736
I0
s(I24172896
I1
tp737
I0
s(I30397315
I2
tp738
I1
s(I17058504
I0
tp739
I1
s(I2255177
I1
tp740
I0
s(I17711212
I0
tp741
I1
s(I22535316
I1
tp742
I0
s(I23024861
I0
tp743
I0
s(I17559933
I1
tp744
I0
s(I27884051
I0
tp745
I0
s(I3277047
I0
tp746
I1
s(I26063269
I0
tp747
I0
s(I6154424
I1
tp748
I0
s(I33733189
I1
tp749
I1
s(I32314712
I0
tp750
I1
s(I11668603
I3
tp751
I0
s(I13953964
I3
tp752
I0
s(I8096798
I0
tp753
I1
s(I21892080
I1
tp754
I0
s(I23833763
I2
tp755
I0
s(I37605612
I1
tp756
I0
s(I19666356
I3
tp757
I1
s(I25705612
I0
tp758
I1
s(I19382088
I1
tp759
I0
s(I20234453
I1
tp760
I0
s(I8780912
I2
tp761
I0
s(I32946908
I2
tp762
I0
s(I508657
I2
tp763
I0
s(I34478011
I4
tp764
I0
s(I36845683
I0
tp765
I1
s(I21223269
I1
tp766
I0
s(I19649791
I1
tp767
I0
s(I30196224
I2
tp768
I1
s(I26983187
I8
tp769
I0
s(I27032670
I1
tp770
I1
s(I25002459
I1
tp771
I1
s(I28306700
I1
tp772
I0
s(I37348050
I2
tp773
I0
s(I7096090
I3
tp774
I0
s(I34859683
I1
tp775
I1
s(I6976372
I0
tp776
I1
s(I4975563
I0
tp777
I1
s(I28500718
I1
tp778
I1
s(I6237378
I3
tp779
I0
s(I5701962
I1
tp780
I0
s(I22893271
I1
tp781
I1
s(I26427128
I1
tp782
I1
s(I2922769
I1
tp783
I0
s(I8948773
I2
tp784
I0
s(I30667382
I1
tp785
I0
s(I6205592
I2
tp786
I0
s(I17799504
I1
tp787
I1
s(I2717086
I0
tp788
I0
s(I18619131
I1
tp789
I0
s(I13497170
I3
tp790
I0
s(I20052327
I1
tp791
I1
s(I19596424
I1
tp792
I0
s(I10040037
I2
tp793
I0
s(I27255080
I0
tp794
I1
s(I24195234
I1
tp795
I0
s(I25030548
I0
tp796
I1
s(I10993692
I2
tp797
I1
s(I27827982
I1
tp798
I1
s(I33319664
I0
tp799
I0
s(I37758227
I3
tp800
I0
s(I10889564
I0
tp801
I0
s(I24004106
I0
tp802
I1
s(I29114975
I1
tp803
I0
s(I34773317
I2
tp804
I0
s(I28416678
I1
tp805
I1
s(I34686485
I1
tp806
I1
s(I14363016
I0
tp807
I0
s(I4416013
I2
tp808
I0
s(I33928554
I1
tp809
I0
s(I14275975
I1
tp810
I1
s(I29484529
I0
tp811
I1
s(I1144702
I2
tp812
I1
s(I21712375
I0
tp813
I0
s(I22616944
I1
tp814
I0
s(I13794620
I2
tp815
I0
s(I35119291
I1
tp816
I0
s(I25959543
I0
tp817
I1
s(I24638781
I3
tp818
I0
s(I5678136
I1
tp819
I0
s(I35580801
I0
tp820
I1
s(I23177075
I1
tp821
I0
s(I35890697
I1
tp822
I0
s(I10429919
I1
tp823
I0
s(I36765952
I1
tp824
I1
s(I9787427
I2
tp825
I0
s(I31076841
I1
tp826
I0
s(I30076583
I1
tp827
I0
s(I24103624
I1
tp828
I0
s(I409732
I1
tp829
I1
s(I10963952
I2
tp830
I0
s(I29451598
I1
tp831
I0
s(I30620595
I0
tp832
I1
s(I19215100
I1
tp833
I1
s(I30156357
I0
tp834
I1
s(I21905433
I2
tp835
I0
s(I16107526
I1
tp836
I0
s(I24097930
I2
tp837
I1
s(I2389846
I3
tp838
I0
s(I22161088
I0
tp839
I1
s(I26787410
I2
tp840
I0
s(I29952373
I1
tp841
I0
s(I18085030
I1
tp842
I0
s(I29950856
I0
tp843
I0
s(I17809274
I3
tp844
I1
s(I324214
I0
tp845
I1
s(I18085030
I0
tp846
I0
s(I6367051
I0
tp847
I1
s(I21736784
I0
tp848
I1
s(I5332701
I2
tp849
I1
s(I5678950
I1
tp850
I1
s(I8422308
I3
tp851
I0
s(I1305532
I0
tp852
I1
s(I33857555
I0
tp853
I1
s(I35664103
I0
tp854
I1
s(I8017432
I0
tp855
I0
s(I32344022
I0
tp856
I1
s(I7407934
I0
tp857
I1
s(I17507841
I2
tp858
I1
s(I13695181
I1
tp859
I0
s(I19330415
I2
tp860
I0
s(I4402383
I2
tp861
I0
s(I28419477
I1
tp862
I0
s(I21195366
I0
tp863
I1
s(I18250516
I0
tp864
I1
s(I36071592
I1
tp865
I0
s(I2203351
I0
tp866
I1
s(I11078122
I1
tp867
I0
s(I22362010
I0
tp868
I1
s(I34371807
I1
tp869
I1
s(I19793156
I1
tp870
I0
s(I9406400
I2
tp871
I0
s(I3187961
I1
tp872
I0
s(I30405409
I2
tp873
I1
s(I30949202
I0
tp874
I1
s(I33069366
I2
tp875
I0
s(I8355262
I0
tp876
I0
s(I16522362
I1
tp877
I1
s(I3337512
I1
tp878
I1
s(I37048689
I0
tp879
I0
s(I21668606
I2
tp880
I0
s(I17103701
I2
tp881
I0
s(I11265670
I0
tp882
I1
s(I31742274
I1
tp883
I0
s(I34755636
I0
tp884
I1
s(I34871024
I1
tp885
I0
s(I9706041
I0
tp886
I1
s(I11668603
I1
tp887
I0
s(I23271192
I2
tp888
I0
s(I35734026
I1
tp889
I0
s(I19043923
I0
tp890
I1
s(I35318700
I1
tp891
I1
s(I27805919
I2
tp892
I1
s(I20892950
I0
tp893
I1
s(I32802833
I1
tp894
I0
s(I29968046
I2
tp895
I1
s(I36753799
I0
tp896
I1
s(I35431172
I6
tp897
I0
s(I24024966
I3
tp898
I0
s(I35608326
I1
tp899
I1
s(I3254713
I0
tp900
I0
s(I706813
I0
tp901
I1
s(I23025497
I0
tp902
I1
s(I32365358
I2
tp903
I0
s(I31912253
I2
tp904
I0
s(I24108842
I1
tp905
I1
s(I32981875
I0
tp906
I1
s(I12824228
I2
tp907
I1
s(I27491734
I1
tp908
I1
s(I11830474
I0
tp909
I1
s(I34079643
I3
tp910
I0
s(I2005234
I1
tp911
I0
s(I26716576
I1
tp912
I0
s(I25345513
I0
tp913
I1
s(I24638781
I0
tp914
I0
s(I11457839
I0
tp915
I1
s(I33252350
I0
tp916
I1
s(I28067258
I1
tp917
I0
s(I30602088
I1
tp918
I0
s(I27739381
I1
tp919
I1
s(I7218865
I0
tp920
I1
s(I14366713
I1
tp921
I0
s(I2397295
I0
tp922
I1
s(I28823170
I1
tp923
I1
s(I6819640
I1
tp924
I0
s(I22023193
I1
tp925
I0
s(I21668606
I5
tp926
I0
s(I15211991
I1
tp927
I0
s(I8714744
I1
tp928
I0
s(I37340568
I0
tp929
I1
s(I2192658
I1
tp930
I0
s(I31663775
I1
tp931
I1
s(I9575384
I0
tp932
I0
s(I29155628
I1
tp933
I0
s(I9465236
I3
tp934
I0
s(I15009180
I2
tp935
I1
s(I25100105
I2
tp936
I0
s(I32295637
I1
tp937
I0
s(I17426202
I3
tp938
I0
s(I6444825
I0
tp939
I0
s(I24325232
I0
tp940
I1
s(I17910359
I0
tp941
I1
s(I20224501
I1
tp942
I0
s(I28647371
I3
tp943
I1
s(I23555829
I1
tp944
I0
s(I30475558
I1
tp945
I0
s(I35962295
I1
tp946
I1
s(I6941965
I2
tp947
I1
s(I25513929
I1
tp948
I0
s(I34114554
I1
tp949
I0
s(I2572099
I0
tp950
I0
s(I1448820
I2
tp951
I0
s(I8345190
I1
tp952
I1
s(I14799223
I1
tp953
I0
s(I33729888
I1
tp954
I0
s(I13539339
I0
tp955
I0
s(I30242208
I11
tp956
I0
s(I36835793
I3
tp957
I0
s(I29036344
I1
tp958
I0
s(I37417157
I1
tp959
I0
s(I16142829
I0
tp960
I1
s(I18938302
I1
tp961
I0
s(I12744136
I1
tp962
I0
s(I2922769
I0
tp963
I0
s(I31347715
I1
tp964
I0
s(I8097844
I1
tp965
I1
s(I34271014
I0
tp966
I0
s(I25068002
I1
tp967
I0
s(I2534786
I0
tp968
I0
s(I10108368
I0
tp969
I0
s(I18050937
I1
tp970
I1
s(I28104377
I2
tp971
I1
s(I22346807
I1
tp972
I1
s(I29058643
I1
tp973
I1
s(I20593215
I1
tp974
I0
s(I22912351
I0
tp975
I0
s(I24216198
I1
tp976
I0
s(I25690778
I0
tp977
I0
s(I25538578
I0
tp978
I1
s(I22674166
I2
tp979
I0
s(I24418864
I1
tp980
I0
s(I37119314
I0
tp981
I1
s(I18679264
I4
tp982
I0
s(I21447599
I1
tp983
I1
s(I3862310
I0
tp984
I0
s(I34950064
I1
tp985
I0
s(I23733922
I0
tp986
I1
s(I27746297
I0
tp987
I0
s(I27670683
I1
tp988
I0
s(I13097764
I1
tp989
I0
s(I10645986
I1
tp990
I1
s(I26552266
I1
tp991
I0
s(I19882621
I3
tp992
I0
s(I15516876
I1
tp993
I1
s(I121025
I0
tp994
I1
s(I33466627
I1
tp995
I0
s(I23866378
I3
tp996
I0
s(I30242208
I2
tp997
I0
s(I36835793
I4
tp998
I0
s(I13983620
I0
tp999
I1
s(I19666356
I2
tp1000
I1
s(I23059398
I3
tp1001
I1
s(I12379529
I0
tp1002
I0
s(I7050562
I1
tp1003
I1
s(I24728933
I1
tp1004
I0
s(I27302220
I0
tp1005
I0
s(I31485414
I1
tp1006
I1
s(I14720912
I3
tp1007
I1
s(I18474538
I6
tp1008
I1
s(I21298191
I0
tp1009
I0
s(I16515465
I1
tp1010
I0
s(I3387691
I1
tp1011
I0
s(I35952815
I1
tp1012
I0
s(I32659345
I2
tp1013
I0
s(I26613341
I1
tp1014
I1
s(I21314143
I2
tp1015
I1
s(I35966940
I0
tp1016
I1
s(I5185944
I1
tp1017
I1
s(I34069642
I0
tp1018
I1
s(I24928086
I1
tp1019
I0
s(I37546552
I0
tp1020
I0
s(I31704411
I3
tp1021
I0
s(I26683175
I2
tp1022
I0
s(I4484985
I1
tp1023
I0
s(I26922284
I2
tp1024
I0
s(I21332785
I1
tp1025
I0
s(I20977408
I0
tp1026
I1
s(I1767565
I2
tp1027
I0
s(I26277322
I2
tp1028
I0
s(I21423213
I0
tp1029
I1
s(I36282772
I1
tp1030
I1
s(I14076207
I0
tp1031
I1
s(I34563454
I1
tp1032
I0
s(I36241474
I1
tp1033
I1
s(I21896326
I0
tp1034
I1
s(I4112561
I2
tp1035
I0
s(I24269756
I2
tp1036
I1
s(I9013354
I2
tp1037
I0
s(I33062288
I0
tp1038
I1
s(I7096090
I2
tp1039
I0
s(I37232279
I1
tp1040
I0
s(I32471239
I0
tp1041
I1
s(I34244726
I1
tp1042
I0
s(I1423251
I1
tp1043
I0
s(I35962295
I0
tp1044
I1
s(I13936068
I0
tp1045
I0
s(I31650674
I0
tp1046
I0
s(I30641097
I0
tp1047
I1
s(I28280507
I1
tp1048
I0
s(I27793543
I0
tp1049
I1
s(I32966627
I0
tp1050
I1
s(I3862310
I2
tp1051
I1
s(I6050187
I0
tp1052
I1
s(I10154289
I1
tp1053
I1
s(I36336637
I0
tp1054
I1
s(I26969526
I0
tp1055
I0
s(I3637419
I0
tp1056
I0
s(I32161369
I0
tp1057
I0
s(I30909414
I2
tp1058
I0
s(I30960440
I2
tp1059
I0
s(I18474538
I1
tp1060
I0
s(I21820700
I0
tp1061
I1
s(I30329252
I2
tp1062
I0
s(I32700996
I0
tp1063
I1
s(I27805919
I0
tp1064
I1
s(I36949277
I5
tp1065
I0
s(I12059634
I1
tp1066
I1
s(I19529825
I2
tp1067
I0
s(I24660923
I0
tp1068
I1
s(I4219843
I1
tp1069
I0
s(I2255177
I4
tp1070
I1
s(I28418901
I0
tp1071
I1
s(I24084817
I5
tp1072
I0
s(I21162819
I0
tp1073
I1
s(I1470453
I1
tp1074
I0
s(I36744627
I1
tp1075
I0
s(I5761617
I1
tp1076
I0
s(I31630708
I0
tp1077
I1
s(I30925637
I1
tp1078
I1
s(I17471682
I4
tp1079
I0
s(I26179639
I0
tp1080
I0
s(I36050713
I1
tp1081
I0
s(I19641162
I1
tp1082
I1
s(I36974140
I0
tp1083
I0
s(I14622698
I0
tp1084
I0
s(I30068271
I1
tp1085
I1
s(I32182116
I1
tp1086
I0
s(I8249165
I1
tp1087
I1
s(I30185056
I0
tp1088
I0
s(I27027500
I1
tp1089
I1
s(I12329807
I2
tp1090
I0
s(I18802249
I2
tp1091
I0
s(I31335460
I1
tp1092
I0
s(I24593478
I1
tp1093
I0
s(I27308840
I0
tp1094
I1
s(I17958069
I2
tp1095
I0
s(I7522721
I1
tp1096
I1
s(I11832984
I3
tp1097
I0
s(I17866724
I2
tp1098
I0
s(I6046049
I0
tp1099
I1
s(I26286980
I1
tp1100
I1
s(I7927670
I0
tp1101
I1
s(I30909414
I5
tp1102
I0
s(I31335460
I0
tp1103
I1
s(I17811168
I1
tp1104
I0
s(I37246418
I0
tp1105
I1
s(I27615872
I0
tp1106
I1
s(I10126668
I1
tp1107
I0
s(I5321466
I1
tp1108
I0
s(I24994284
I0
tp1109
I1
s(I37258152
I1
tp1110
I0
s(I28643401
I1
tp1111
I1
s(I36144303
I0
tp1112
I1
s(I35389648
I2
tp1113
I1
s(I14873181
I0
tp1114
I1
s(I28720893
I1
tp1115
I0
s(I28332217
I0
tp1116
I0
s(I31828240
I0
tp1117
I1
s(I29224567
I0
tp1118
I0
s(I17374553
I1
tp1119
I0
s(I35208997
I0
tp1120
I0
s(I22384398
I2
tp1121
I0
s(I22959268
I1
tp1122
I0
s(I27674145
I1
tp1123
I0
s(I20778951
I2
tp1124
I1
s(I14436970
I2
tp1125
I0
s(I27216950
I3
tp1126
I0
s(I22484903
I4
tp1127
I1
s(I19043923
I1
tp1128
I0
s(I1527689
I2
tp1129
I1
s(I21208724
I2
tp1130
I0
s(I35252265
I3
tp1131
I0
s(I16773583
I0
tp1132
I1
s(I22693260
I1
tp1133
I1
s(I36409213
I0
tp1134
I1
s(I21159782
I2
tp1135
I0
s(I23114734
I0
tp1136
I1
s(I16983863
I1
tp1137
I1
s(I18854425
I2
tp1138
I0
s(I20190748
I1
tp1139
I0
s(I18108438
I1
tp1140
I1
s(I37119071
I0
tp1141
I0
s(I34514629
I0
tp1142
I0
s(I6406368
I1
tp1143
I1
s(I24496320
I0
tp1144
I1
s(I36672440
I1
tp1145
I0
s(I14601544
I2
tp1146
I0
s(I14711669
I1
tp1147
I1
s(I36242061
I4
tp1148
I0
s(I29998052
I4
tp1149
I1
s(I6253617
I1
tp1150
I0
s(I28083576
I1
tp1151
I0
s(I19552183
I0
tp1152
I1
s(I28720893
I0
tp1153
I0
s(I29351492
I2
tp1154
I0
s(I20846235
I2
tp1155
I0
s(I4339736
I0
tp1156
I1
s(I37685718
I0
tp1157
I1
s(I36744627
I0
tp1158
I1
s(I7933596
I5
tp1159
I0
s(I28176483
I2
tp1160
I0
s(I27064243
I1
tp1161
I0
s(I18631669
I0
tp1162
I1
s(I21126108
I2
tp1163
I0
s(I19923464
I1
tp1164
I0
s(I35656186
I0
tp1165
I0
s(I21377990
I1
tp1166
I1
s(I1175208
I0
tp1167
I1
s(I30272538
I5
tp1168
I0
s(I12309693
I0
tp1169
I0
s(I29721519
I1
tp1170
I0
s(I5726827
I0
tp1171
I1
s(I23298460
I2
tp1172
I0
s(I33105265
I3
tp1173
I0
s(I7086295
I0
tp1174
I1
s(I35252265
I4
tp1175
I0
s(I5901653
I1
tp1176
I1
s(I2939050
I2
tp1177
I0
s(I30196224
I0
tp1178
I1
s(I31105362
I0
tp1179
I0
s(I17077403
I1
tp1180
I0
s(I11179879
I0
tp1181
I1
s(I9950474
I4
tp1182
I0
s(I28461458
I2
tp1183
I0
s(I2012611
I0
tp1184
I1
s(I16070219
I2
tp1185
I0
s(I22221858
I0
tp1186
I0
s(I16207633
I1
tp1187
I1
s(I31841487
I1
tp1188
I0
s(I22518000
I1
tp1189
I1
s(I32298978
I0
tp1190
I1
s(I15066913
I0
tp1191
I0
s(I24787224
I2
tp1192
I1
s(I29998052
I3
tp1193
I1
s(I25641980
I0
tp1194
I0
s(I34569966
I3
tp1195
I1
s(I7302316
I1
tp1196
I1
s(I21885814
I1
tp1197
I1
s(I29365357
I0
tp1198
I0
s(I11805535
I1
tp1199
I0
s(I33869234
I1
tp1200
I0
s(I18086307
I2
tp1201
I0
s(I20359968
I0
tp1202
I0
s(I17911276
I1
tp1203
I0
s(I36165854
I0
tp1204
I1
s(I22827317
I0
tp1205
I0
s(I13405223
I1
tp1206
I0
s(I18696264
I1
tp1207
I1
s(I4976964
I1
tp1208
I0
s(I30406324
I1
tp1209
I0
s(I34576433
I1
tp1210
I1
s(I27216950
I0
tp1211
I1
s(I10636203
I0
tp1212
I0
s(I20857188
I5
tp1213
I1
s(I25859572
I2
tp1214
I0
s(I23866378
I1
tp1215
I0
s(I21439948
I3
tp1216
I0
s(I23626026
I1
tp1217
I0
s(I17252056
I1
tp1218
I0
s(I24285311
I1
tp1219
I0
s(I31404238
I0
tp1220
I1
s(I37444512
I1
tp1221
I1
s(I27810523
I1
tp1222
I1
s(I29867175
I0
tp1223
I1
s(I20720521
I1
tp1224
I1
s(I34286165
I0
tp1225
I1
s(I20190748
I0
tp1226
I0
s(I8652136
I1
tp1227
I1
s(I27551921
I0
tp1228
I1
s(I31912253
I3
tp1229
I0
s(I35115138
I1
tp1230
I0
s(I35774261
I3
tp1231
I0
s(I34124733
I1
tp1232
I0
s(I10472907
I1
tp1233
I1
s(I29744665
I1
tp1234
I0
s(I27925861
I0
tp1235
I0
s(I10599771
I0
tp1236
I0
s(I35840403
I0
tp1237
I1
s(I31370701
I2
tp1238
I0
s(I14891190
I1
tp1239
I1
s(I22214949
I2
tp1240
I0
s(I3748356
I0
tp1241
I0
s(I29998052
I10
tp1242
I0
s(I26856378
I1
tp1243
I0
s(I8147559
I1
tp1244
I1
s(I15711845
I2
tp1245
I0
s(I18689862
I1
tp1246
I0
s(I12081704
I0
tp1247
I0
s(I5722767
I0
tp1248
I1
s(I24780464
I2
tp1249
I0
s(I17870242
I1
tp1250
I1
s(I13390315
I0
tp1251
I0
s(I35252265
I2
tp1252
I0
s(I33099417
I0
tp1253
I1
s(I6102103
I0
tp1254
I0
s(I10108368
I7
tp1255
I0
s(I35199556
I3
tp1256
I0
s(I31498844
I0
tp1257
I1
s(I16397116
I1
tp1258
I0
s(I36579996
I6
tp1259
I0
s(I33304356
I0
tp1260
I1
s(I15089310
I1
tp1261
I1
s(I35775207
I0
tp1262
I1
s(I18114415
I2
tp1263
I1
s(I9364754
I2
tp1264
I0
s(I34141855
I4
tp1265
I1
s(I19395350
I0
tp1266
I1
s(I5470210
I2
tp1267
I0
s(I19317766
I0
tp1268
I0
s(I25493559
I2
tp1269
I0
s(I19666356
I0
tp1270
I1
s(I12014704
I1
tp1271
I0
s(I33139927
I3
tp1272
I0
s(I36799190
I2
tp1273
I0
s(I34146679
I0
tp1274
I0
s(I19297410
I1
tp1275
I0
s(I31349898
I0
tp1276
I1
s(I17774547
I0
tp1277
I1
s(I35720234
I0
tp1278
I1
s(I19199869
I5
tp1279
I0
s(I33928554
I2
tp1280
I0
s(I544923
I0
tp1281
I0
s(I9232944
I1
tp1282
I1
s(I34014527
I0
tp1283
I1
s(I3102098
I3
tp1284
I0
s(I28348485
I5
tp1285
I0
s(I8087485
I1
tp1286
I1
s(I28280507
I2
tp1287
I0
s(I37423445
I1
tp1288
I0
s(I33404038
I1
tp1289
I0
s(I32308382
I2
tp1290
I0
s(I8950809
I1
tp1291
I0
s(I23310630
I0
tp1292
I1
s(I8019287
I2
tp1293
I0
s(I18765094
I0
tp1294
I0
s(I11519787
I0
tp1295
I1
s(I34931548
I2
tp1296
I0
s(I35306419
I2
tp1297
I1
s(I32308382
I1
tp1298
I0
s(I31367608
I2
tp1299
I0
s(I25664682
I1
tp1300
I0
s(I7376019
I1
tp1301
I1
s(I15508970
I3
tp1302
I1
s(I32537153
I1
tp1303
I0
s(I34117408
I1
tp1304
I0
s(I30602088
I0
tp1305
I0
s(I34793225
I1
tp1306
I0
s(I22696168
I1
tp1307
I1
s(I1008038
I1
tp1308
I0
s(I13794620
I0
tp1309
I0
s(I21217108
I1
tp1310
I0
s(I35867650
I1
tp1311
I1
s(I24427828
I3
tp1312
I1
s(I30782867
I0
tp1313
I1
s(I18141698
I0
tp1314
I1
s(I15905215
I0
tp1315
I1
s(I21941657
I1
tp1316
I0
s(I22920023
I1
tp1317
I1
s(I11052920
I1
tp1318
I1
s(I27947419
I2
tp1319
I0
s(I34137572
I1
tp1320
I0
s(I26830752
I2
tp1321
I0
s(I37425477
I3
tp1322
I0
s(I32690945
I2
tp1323
I1
s(I14710221
I1
tp1324
I1
s(I27122584
I0
tp1325
I0
s(I28072914
I3
tp1326
I0
s(I35322452
I3
tp1327
I0
s(I13562613
I0
tp1328
I1
s(I29481485
I3
tp1329
I0
s(I21817657
I5
tp1330
I1
s(I18233948
I1
tp1331
I0
s(I31149123
I1
tp1332
I0
s(I11159668
I1
tp1333
I0
s(I5678950
I0
tp1334
I1
s(I29112610
I1
tp1335
I1
s(I31009455
I1
tp1336
I1
s(I28677840
I1
tp1337
I0
s(I27458073
I0
tp1338
I0
s(I1673483
I1
tp1339
I0
s(I23718340
I3
tp1340
I1
s(I6624152
I1
tp1341
I0
s(I36597386
I0
tp1342
I1
s(I6669828
I0
tp1343
I0
s(I28431519
I0
tp1344
I0
s(I18787830
I0
tp1345
I1
s(I8422308
I0
tp1346
I0
s(I30133281
I2
tp1347
I0
s(I12494930
I0
tp1348
I0
s(I15329797
I1
tp1349
I1
s(I33270413
I2
tp1350
I0
s(I23918947
I1
tp1351
I1
s(I1783251
I4
tp1352
I0
s(I36445193
I0
tp1353
I1
s(I32403846
I0
tp1354
I1
s(I34445707
I0
tp1355
I1
s(I26205922
I0
tp1356
I0
s(I27884051
I2
tp1357
I0
s(I34439723
I1
tp1358
I0
s(I30268750
I0
tp1359
I1
s(I17211188
I0
tp1360
I1
s(I11313599
I0
tp1361
I1
s(I29947844
I0
tp1362
I1
s(I6316726
I3
tp1363
I0
s(I36939122
I0
tp1364
I1
s(I26871083
I4
tp1365
I0
s(I15326069
I0
tp1366
I1
s(I19945525
I0
tp1367
I1
s(I31124914
I2
tp1368
I0
s(I15114761
I2
tp1369
I0
s(I29910229
I1
tp1370
I0
s(I9630668
I0
tp1371
I1
s(I25244751
I0
tp1372
I1
s(I20531168
I0
tp1373
I0
s(I35322452
I0
tp1374
I0
s(I19844558
I1
tp1375
I1
s(I28823052
I4
tp1376
I0
s(I16218482
I1
tp1377
I0
s(I4910789
I0
tp1378
I0
s(I25088066
I2
tp1379
I0
s(I34799167
I3
tp1380
I0
s(I34478011
I9
tp1381
I0
s(I14582852
I1
tp1382
I0
s(I20484918
I0
tp1383
I1
s(I25249663
I1
tp1384
I0
s(I34824864
I1
tp1385
I1
s(I32772190
I1
tp1386
I0
s(I35242055
I1
tp1387
I0
s(I20974696
I1
tp1388
I1
s(I15721679
I3
tp1389
I0
s(I25882275
I1
tp1390
I0
s(I19562863
I0
tp1391
I1
s(I9456233
I0
tp1392
I1
s(I24438325
I3
tp1393
I0
s(I16090146
I0
tp1394
I0
s(I29356022
I2
tp1395
I0
s(I11827100
I1
tp1396
I0
s(I34243214
I0
tp1397
I0
s(I15510367
I3
tp1398
I0
s(I31146021
I2
tp1399
I0
s(I29083478
I0
tp1400
I1
s(I10437805
I0
tp1401
I1
s(I35619038
I6
tp1402
I0
s(I31014848
I1
tp1403
I1
s(I18386302
I1
tp1404
I1
s(I28647371
I1
tp1405
I0
s(I6762695
I0
tp1406
I1
s(I27773141
I0
tp1407
I1
s(I2951701
I1
tp1408
I1
s(I29155628
I0
tp1409
I1
s(I15820788
I1
tp1410
I0
s(I33021916
I0
tp1411
I1
s(I17795362
I1
tp1412
I0
s(I31456902
I3
tp1413
I0
s(I21111836
I2
tp1414
I0
s(I31562534
I2
tp1415
I0
s(I30053381
I0
tp1416
I0
s(I35300343
I1
tp1417
I0
s(I30683301
I1
tp1418
I0
s(I33037416
I4
tp1419
I0
s(I19728214
I0
tp1420
I1
s(I5947137
I1
tp1421
I1
s(I28823052
I3
tp1422
I0
s(I16661101
I1
tp1423
I0
s(I13793694
I1
tp1424
I0
s(I32262334
I2
tp1425
I1
s(I33978569
I1
tp1426
I1
s(I15971308
I0
tp1427
I1
s(I33341000
I0
tp1428
I1
s(I34910228
I1
tp1429
I0
s(I33402355
I5
tp1430
I0
s(I34400455
I0
tp1431
I1
s(I36436953
I2
tp1432
I1
s(I30198481
I3
tp1433
I0
s(I16615630
I0
tp1434
I1
s(I26983187
I13
tp1435
I0
s(I31619128
I1
tp1436
I0
s(I12307099
I0
tp1437
I1
s(I3955571
I1
tp1438
I0
s(I24172896
I2
tp1439
I0
s(I29573963
I0
tp1440
I1
s(I4976964
I0
tp1441
I1
s(I33948731
I1
tp1442
I0
s(I17711212
I1
tp1443
I0
s(I7490408
I0
tp1444
I1
s(I10500834
I1
tp1445
I1
s(I34008175
I1
tp1446
I0
s(I36935617
I5
tp1447
I1
s(I18679264
I2
tp1448
I0
s(I17799504
I0
tp1449
I1
s(I3458542
I0
tp1450
I0
s(I33733189
I0
tp1451
I0
s(I32314712
I1
tp1452
I1
s(I36464357
I1
tp1453
I0
s(I11668603
I2
tp1454
I0
s(I35025400
I0
tp1455
I1
s(I19926534
I1
tp1456
I1
s(I24042596
I0
tp1457
I1
s(I2654689
I2
tp1458
I0
s(I12012818
I0
tp1459
I0
s(I25705612
I1
tp1460
I0
s(I21333339
I1
tp1461
I0
s(I20234453
I0
tp1462
I1
s(I10881852
I0
tp1463
I0
s(I16160474
I0
tp1464
I1
s(I8780912
I3
tp1465
I0
s(I37128072
I0
tp1466
I1
s(I32946908
I3
tp1467
I0
s(I25690354
I4
tp1468
I0
s(I34478011
I7
tp1469
I0
s(I13920235
I1
tp1470
I1
s(I31847577
I1
tp1471
I1
s(I21223269
I0
tp1472
I0
s(I16659818
I0
tp1473
I1
s(I29246483
I0
tp1474
I1
s(I33554230
I1
tp1475
I0
s(I20316339
I1
tp1476
I1
s(I5995478
I0
tp1477
I1
s(I26826838
I1
tp1478
I1
s(I25002459
I0
tp1479
I1
s(I9538171
I1
tp1480
I0
s(I31617530
I1
tp1481
I1
s(I13374028
I0
tp1482
I0
s(I34859683
I0
tp1483
I0
s(I16019624
I0
tp1484
I1
s(I6976372
I1
tp1485
I0
s(I10112614
I0
tp1486
I1
s(I28898735
I1
tp1487
I0
s(I31416465
I2
tp1488
I1
s(I6237378
I0
tp1489
I1
s(I2126551
I0
tp1490
I1
s(I26427128
I2
tp1491
I0
s(I27733482
I1
tp1492
I0
s(I8948773
I1
tp1493
I0
s(I28348485
I3
tp1494
I0
s(I37106934
I0
tp1495
I1
s(I37136697
I1
tp1496
I1
s(I18619131
I0
tp1497
I1
s(I20052327
I0
tp1498
I1
s(I17426202
I1
tp1499
I0
s(I10014572
I0
tp1500
I0
s(I33569374
I3
tp1501
I0
s(I4660250
I0
tp1502
I1
s(I11198718
I1
tp1503
I1
s(I21720721
I1
tp1504
I0
s(I17734781
I1
tp1505
I0
s(I37758227
I2
tp1506
I0
s(I10889564
I1
tp1507
I0
s(I30784217
I1
tp1508
I0
s(I24004106
I1
tp1509
I0
s(I26644002
I2
tp1510
I1
s(I34773317
I1
tp1511
I1
s(I35631192
I0
tp1512
I0
s(I21333339
I0
tp1513
I1
s(I35560606
I0
tp1514
I1
s(I20524146
I0
tp1515
I1
s(I12923835
I1
tp1516
I0
s(I14275975
I0
tp1517
I0
s(I34845096
I2
tp1518
I0
s(I20593215
I2
tp1519
I0
s(I28059257
I5
tp1520
I1
s(I21125897
I3
tp1521
I0
s(I35664103
I1
tp1522
I0
s(I22616944
I2
tp1523
I0
s(I4702518
I0
tp1524
I1
s(I25513929
I2
tp1525
I0
s(I24638781
I2
tp1526
I1
s(I35346425
I1
tp1527
I0
s(I36061608
I1
tp1528
I1
s(I18244791
I1
tp1529
I0
s(I23177075
I0
tp1530
I1
s(I19534230
I1
tp1531
I0
s(I15418751
I1
tp1532
I0
s(I10429919
I0
tp1533
I0
s(I14856385
I1
tp1534
I1
s(I6235146
I2
tp1535
I0
s(I26498100
I1
tp1536
I0
s(I28431519
I5
tp1537
I0
s(I30076583
I0
tp1538
I0
s(I24103624
I2
tp1539
I1
s(I10963952
I3
tp1540
I0
s(I25744399
I1
tp1541
I0
s(I19215100
I2
tp1542
I1
s(I21905433
I1
tp1543
I1
s(I34514629
I1
tp1544
I1
s(I34066053
I1
tp1545
I0
s(I31611288
I0
tp1546
I0
s(I17700964
I1
tp1547
I0
s(I2389846
I0
tp1548
I1
s(I34512219
I0
tp1549
I0
s(I20593215
I0
tp1550
I1
s(I26787410
I3
tp1551
I0
s(I34734933
I0
tp1552
I1
s(I29952373
I0
tp1553
I1
s(I14258317
I3
tp1554
I0
s(I29950856
I1
tp1555
I0
s(I17809274
I0
tp1556
I1
s(I7821265
I0
tp1557
I0
s(I13953964
I0
tp1558
I0
s(I30740326
I1
tp1559
I0
s(I13208212
I0
tp1560
I1
s(I21736784
I1
tp1561
I0
s(I899138
I0
tp1562
I0
s(I4791080
I4
tp1563
I0
s(I37083117
I0
tp1564
I0
s(I31635818
I1
tp1565
I0
s(I5930036
I2
tp1566
I1
s(I8017432
I1
tp1567
I0
s(I32344022
I1
tp1568
I0
s(I7171140
I0
tp1569
I1
s(I31562534
I1
tp1570
I0
s(I13695181
I0
tp1571
I1
s(I30242208
I10
tp1572
I0
s(I28036818
I0
tp1573
I1
s(I19079040
I0
tp1574
I1
s(I3843017
I1
tp1575
I0
s(I28419477
I0
tp1576
I1
s(I27925861
I1
tp1577
I0
s(I21195366
I1
tp1578
I0
s(I18250516
I1
tp1579
I1
s(I9542738
I4
tp1580
I1
s(I19221073
I1
tp1581
I0
s(I20622240
I2
tp1582
I0
s(I36086075
I1
tp1583
I0
s(I29083478
I1
tp1584
I0
s(I14783438
I0
tp1585
I1
s(I2148119
I1
tp1586
I0
s(I32424555
I1
tp1587
I0
s(I19793156
I2
tp1588
I0
s(I30405409
I1
tp1589
I1
s(I30949202
I1
tp1590
I0
s(I31957215
I1
tp1591
I1
s(I33069366
I3
tp1592
I0
s(I25705612
I5
tp1593
I0
s(I28643401
I0
tp1594
I1
s(I3337512
I2
tp1595
I0
s(I11065100
I0
tp1596
I0
s(I21668606
I3
tp1597
I0
s(I17103701
I1
tp1598
I1
s(I28187921
I0
tp1599
I1
s(I34755636
I1
tp1600
I1
s(I23271192
I3
tp1601
I0
s(I36967883
I1
tp1602
I0
s(I36672440
I2
tp1603
I0
s(I9465236
I2
tp1604
I0
s(I14677341
I2
tp1605
I0
s(I4484985
I0
tp1606
I1
s(I20153165
I0
tp1607
I0
s(I5286022
I1
tp1608
I1
s(I6444825
I1
tp1609
I1
s(I18281342
I0
tp1610
I1
s(I11943980
I0
tp1611
I1
s(I31556782
I1
tp1612
I0
s(I17243403
I2
tp1613
I1
s(I31364390
I0
tp1614
I1
s(I25411441
I2
tp1615
I0
s(I31912253
I1
tp1616
I0
s(I17641195
I1
tp1617
I0
s(I32981875
I3
tp1618
I1
s(I15711845
I0
tp1619
I0
s(I27823447
I1
tp1620
I0
s(I34079643
I2
tp1621
I0
s(I1448820
I4
tp1622
I1
s(I27407485
I0
tp1623
I1
s(I5162130
I1
tp1624
I0
s(I23008799
I1
tp1625
I0
s(I23429426
I0
tp1626
I1
s(I33252350
I1
tp1627
I0
s(I33385238
I2
tp1628
I1
s(I2621549
I2
tp1629
I0
s(I11649577
I1
tp1630
I1
s(I15238389
I0
tp1631
I1
s(I32077660
I2
tp1632
I0
s(I36849151
I0
tp1633
I1
s(I25649412
I4
tp1634
I0
s(I9857382
I0
tp1635
I1
s(I23312803
I1
tp1636
I1
s(I25025291
I1
tp1637
I0
s(I15211991
I0
tp1638
I0
s(I8714744
I2
tp1639
I0
s(I17122268
I0
tp1640
I1
s(I37340568
I1
tp1641
I0
s(I28020874
I0
tp1642
I1
s(I12231891
I1
tp1643
I0
s(I31663775
I0
tp1644
I1
s(I13882808
I2
tp1645
I0
s(I28658817
I2
tp1646
I1
s(I25100105
I1
tp1647
I0
s(I18972212
I0
tp1648
I1
s(I14940338
I0
tp1649
I1
s(I18286362
I0
tp1650
I0
s(I3724488
I0
tp1651
I0
s(I36549666
I0
tp1652
I1
s(I25137972
I0
tp1653
I0
s(I28267563
I1
tp1654
I0
s(I11816741
I0
tp1655
I0
s(I24481614
I0
tp1656
I1
s(I33607716
I4
tp1657
I0
s(I27103165
I3
tp1658
I0
s(I28857930
I3
tp1659
I1
s(I32935585
I1
tp1660
I0
s(I28015044
I0
tp1661
I1
s(I6941965
I1
tp1662
I0
s(I25513929
I0
tp1663
I0
s(I35061363
I0
tp1664
I1
s(I1448820
I3
tp1665
I0
s(I10961378
I0
tp1666
I0
s(I28467688
I0
tp1667
I1
s(I30229104
I2
tp1668
I1
s(I30242208
I12
tp1669
I0
s(I36835793
I2
tp1670
I0
s(I32215965
I1
tp1671
I0
s(I23059398
I2
tp1672
I0
s(I29036344
I2
tp1673
I0
s(I37417157
I0
tp1674
I0
s(I26562487
I1
tp1675
I0
s(I27947419
I4
tp1676
I0
s(I34600056
I0
tp1677
I0
s(I34137398
I0
tp1678
I0
s(I20359968
I1
tp1679
I0
s(I23297197
I1
tp1680
I0
s(I21314143
I4
tp1681
I1
s(I25859572
I1
tp1682
I0
s(I34271014
I1
tp1683
I0
s(I2534786
I1
tp1684
I0
s(I14808945
I1
tp1685
I0
s(I18050937
I0
tp1686
I1
s(I26922284
I4
tp1687
I0
s(I22346807
I0
tp1688
I0
s(I7877282
I1
tp1689
I0
s(I35208832
I1
tp1690
I0
s(I12413317
I1
tp1691
I0
s(I36282772
I0
tp1692
I1
s(I12309693
I1
tp1693
I0
s(I12501761
I0
tp1694
I0
s(I25538578
I1
tp1695
I0
s(I9020831
I1
tp1696
I1
s(I2192658
I3
tp1697
I0
s(I9091299
I2
tp1698
I0
s(I22158110
I0
tp1699
I0
s(I21712375
I3
tp1700
I0
s(I8937566
I2
tp1701
I1
s(I14001382
I0
tp1702
I0
s(I23733922
I1
tp1703
I1
s(I30578068
I0
tp1704
I0
s(I19882621
I2
tp1705
I0
s(I31665106
I1
tp1706
I1
s(I973481
I3
tp1707
I0
s(I27064243
I0
tp1708
I1
s(I22332069
I1
tp1709
I0
s(I30242208
I3
tp1710
I0
s(I13983620
I1
tp1711
I1
s(I28928049
I0
tp1712
I1
s(I35428388
I0
tp1713
I0
s(I18507244
I0
tp1714
I1
s(I25746147
I1
tp1715
I0
s(I32018206
I0
tp1716
I1
s(I35952815
I0
tp1717
I1
s(I32659345
I1
tp1718
I0
s(I26613341
I0
tp1719
I1
s(I10636203
I3
tp1720
I0
s(I35966940
I1
tp1721
I0
s(I34069642
I1
tp1722
I0
s(I18608160
I0
tp1723
I0
s(I35609991
I0
tp1724
I1
s(I31704411
I2
tp1725
I0
s(I15688462
I2
tp1726
I1
s(I26922284
I3
tp1727
I0
s(I32379895
I4
tp1728
I0
s(I1767565
I1
tp1729
I0
s(I33875238
I0
tp1730
I1
s(I24584784
I0
tp1731
I1
s(I32921049
I4
tp1732
I0
s(I13390315
I3
tp1733
I0
s(I10507011
I1
tp1734
I0
s(I23555829
I2
tp1735
I0
s(I4112561
I1
tp1736
I0
s(I25024087
I2
tp1737
I1
s(I25255535
I1
tp1738
I0
s(I33062288
I1
tp1739
I1
s(I24752712
I1
tp1740
I1
s(I32687664
I0
tp1741
I1
s(I37232279
I0
tp1742
I1
s(I34638457
I1
tp1743
I0
s(I31502786
I2
tp1744
I1
s(I6998245
I1
tp1745
I0
s(I13936068
I1
tp1746
I0
s(I22591297
I1
tp1747
I1
s(I31650674
I1
tp1748
I0
s(I9950474
I1
tp1749
I0
s(I17598881
I2
tp1750
I0
s(I32700996
I1
tp1751
I0
s(I28647371
I4
tp1752
I0
s(I10099326
I0
tp1753
I1
s(I15401415
I1
tp1754
I1
s(I10154289
I0
tp1755
I1
s(I20695432
I0
tp1756
I1
s(I25296219
I1
tp1757
I1
s(I3637419
I3
tp1758
I0
s(I23626026
I0
tp1759
I0
s(I30909414
I3
tp1760
I0
s(I28244029
I1
tp1761
I1
s(I30960440
I3
tp1762
I0
s(I9151104
I0
tp1763
I1
s(I17555470
I0
tp1764
I1
s(I17958069
I0
tp1765
I0
s(I27914360
I1
tp1766
I0
s(I13247749
I1
tp1767
I0
s(I36949277
I4
tp1768
I0
s(I31978879
I0
tp1769
I1
s(I19529825
I1
tp1770
I0
s(I25467360
I0
tp1771
I1
s(I29509781
I0
tp1772
I0
s(I1470453
I0
tp1773
I1
s(I5761617
I0
tp1774
I0
s(I18839875
I1
tp1775
I0
s(I31630708
I1
tp1776
I0
s(I32975636
I0
tp1777
I0
s(I34419926
I0
tp1778
I1
s(I14677341
I1
tp1779
I0
s(I36050713
I0
tp1780
I1
s(I34950064
I0
tp1781
I1
s(I36974140
I1
tp1782
I0
s(I14622698
I1
tp1783
I0
s(I36849151
I3
tp1784
I0
s(I22518000
I3
tp1785
I0
s(I21208724
I4
tp1786
I1
s(I35232897
I1
tp1787
I1
s(I14940338
I1
tp1788
I1
s(I35220031
I1
tp1789
I0
s(I30185056
I1
tp1790
I0
s(I27027500
I2
tp1791
I1
s(I24834560
I0
tp1792
I1
s(I26059710
I0
tp1793
I1
s(I27308840
I1
tp1794
I0
s(I17958069
I1
tp1795
I0
s(I17910014
I2
tp1796
I1
s(I1777344
I0
tp1797
I1
s(I34769801
I0
tp1798
I1
s(I10610592
I0
tp1799
I1
s(I10526579
I0
tp1800
I1
s(I6406368
I0
tp1801
I1
s(I26552266
I0
tp1802
I1
s(I7927670
I1
tp1803
I0
s(I6029912
I0
tp1804
I0
s(I24319973
I2
tp1805
I0
s(I17811168
I2
tp1806
I0
s(I37246418
I1
tp1807
I1
s(I9151104
I1
tp1808
I1
s(I10126668
I2
tp1809
I0
s(I28083576
I0
tp1810
I1
s(I37258152
I2
tp1811
I0
s(I25467360
I6
tp1812
I0
s(I6389577
I0
tp1813
I1
s(I17534484
I2
tp1814
I0
s(I33003547
I0
tp1815
I0
s(I25467360
I7
tp1816
I0
s(I14014292
I0
tp1817
I1
s(I31828240
I1
tp1818
I1
s(I11623769
I0
tp1819
I0
s(I27743031
I4
tp1820
I0
s(I22384398
I3
tp1821
I0
s(I34452644
I2
tp1822
I0
s(I27674145
I0
tp1823
I1
s(I3257619
I1
tp1824
I0
s(I14436970
I3
tp1825
I0
s(I36971201
I1
tp1826
I0
s(I11623769
I1
tp1827
I1
s(I33347648
I0
tp1828
I1
s(I34607271
I0
tp1829
I1
s(I1527689
I1
tp1830
I0
s(I21208724
I3
tp1831
I0
s(I26238723
I0
tp1832
I0
s(I9288169
I0
tp1833
I0
s(I20062672
I0
tp1834
I1
s(I6798490
I2
tp1835
I0
s(I18088496
I1
tp1836
I1
s(I21959866
I2
tp1837
I1
s(I23114734
I1
tp1838
I0
s(I20339462
I2
tp1839
I0
s(I16983863
I0
tp1840
I0
s(I24314839
I1
tp1841
I1
s(I14815365
I1
tp1842
I1
s(I24004106
I2
tp1843
I0
s(I2034584
I0
tp1844
I1
s(I24496320
I1
tp1845
I1
s(I14601544
I3
tp1846
I0
s(I19179245
I2
tp1847
I0
s(I20825173
I0
tp1848
I0
s(I14711669
I0
tp1849
I1
s(I36242061
I3
tp1850
I1
s(I29998052
I5
tp1851
I0
s(I34452644
I1
tp1852
I0
s(I32719686
I1
tp1853
I0
s(I27573800
I0
tp1854
I1
s(I22535316
I0
tp1855
I0
s(I15510367
I4
tp1856
I0
s(I19461747
I2
tp1857
I0
s(I14144315
I2
tp1858
I0
s(I2237624
I0
tp1859
I1
s(I7933596
I6
tp1860
I0
s(I10040037
I3
tp1861
I0
s(I18679264
I1
tp1862
I0
s(I9670866
I0
tp1863
I0
s(I18082130
I0
tp1864
I1
s(I23323675
I1
tp1865
I1
s(I19923464
I2
tp1866
I0
s(I35656186
I1
tp1867
I0
s(I21439948
I2
tp1868
I0
s(I1175208
I1
tp1869
I0
s(I37397296
I3
tp1870
I0
s(I17065086
I2
tp1871
I1
s(I21447599
I0
tp1872
I1
s(I8302519
I1
tp1873
I1
s(I25946008
I1
tp1874
I0
s(I23046827
I1
tp1875
I0
s(I21080357
I1
tp1876
I0
s(I3187961
I2
tp1877
I1
s(I10282693
I1
tp1878
I0
s(I31105362
I1
tp1879
I0
s(I17077403
I0
tp1880
I0
s(I2363954
I2
tp1881
I0
s(I5999241
I2
tp1882
I0
s(I37113173
I1
tp1883
I0
s(I16207633
I0
tp1884
I0
s(I31841487
I0
tp1885
I1
s(I2468334
I1
tp1886
I1
s(I32298978
I1
tp1887
I0
s(I28616651
I1
tp1888
I1
s(I25641980
I1
tp1889
I0
s(I34569966
I0
tp1890
I1
s(I27491988
I2
tp1891
I1
s(I24748179
I1
tp1892
I0
s(I11805535
I0
tp1893
I1
s(I36408096
I1
tp1894
I0
s(I17911276
I2
tp1895
I1
s(I36165854
I1
tp1896
I0
s(I26238723
I1
tp1897
I0
s(I13405223
I0
tp1898
I1
s(I21125897
I1
tp1899
I0
s(I21015447
I1
tp1900
I0
s(I33518124
I0
tp1901
I1
s(I30406324
I2
tp1902
I1
s(I34576433
I0
tp1903
I1
s(I16397116
I0
tp1904
I0
s(I15340713
I0
tp1905
I1
s(I37219219
I0
tp1906
I1
s(I17762515
I2
tp1907
I1
s(I32798908
I0
tp1908
I1
s(I18114415
I4
tp1909
I0
s(I3065624
I0
tp1910
I0
s(I15133537
I1
tp1911
I0
s(I4868900
I2
tp1912
I0
s(I27810523
I0
tp1913
I1
s(I20720521
I0
tp1914
I1
s(I36364512
I0
tp1915
I1
s(I29041324
I1
tp1916
I0
s(I7501557
I0
tp1917
I1
s(I23441228
I0
tp1918
I1
s(I22462728
I1
tp1919
I0
s(I2777188
I1
tp1920
I1
s(I35774261
I2
tp1921
I0
s(I29744665
I0
tp1922
I0
s(I18088496
I0
tp1923
I1
s(I18497810
I1
tp1924
I1
s(I12674794
I1
tp1925
I0
s(I22214949
I1
tp1926
I1
s(I3748356
I1
tp1927
I0
s(I15815999
I1
tp1928
I1
s(I15312953
I0
tp1929
I1
s(I22750555
I0
tp1930
I0
s(I9460992
I0
tp1931
I0
s(I8147559
I0
tp1932
I1
s(I5771039
I2
tp1933
I0
s(I33869234
I0
tp1934
I0
s(I12081704
I1
tp1935
I0
s(I28766133
I1
tp1936
I0
s(I24780464
I3
tp1937
I0
s(I28870344
I0
tp1938
I1
s(I15114761
I0
tp1939
I0
s(I24024966
I0
tp1940
I1
s(I32390539
I0
tp1941
I0
s(I24918515
I0
tp1942
I1
s(I31498844
I1
tp1943
I0
s(I10048069
I1
tp1944
I1
s(I27112449
I0
tp1945
I1
s(I14572495
I1
tp1946
I1
s(I33304356
I1
tp1947
I0
s(I35559958
I0
tp1948
I1
s(I33970546
I0
tp1949
I1
s(I35596269
I1
tp1950
I0
s(I30782867
I1
tp1951
I0
s(I25244751
I2
tp1952
I0
s(I34929717
I0
tp1953
I0
s(I18772706
I0
tp1954
I1
s(I19317766
I1
tp1955
I0
s(I29114975
I2
tp1956
I1
s(I19666356
I1
tp1957
I1
s(I25002150
I0
tp1958
I0
s(I33139927
I2
tp1959
I1
s(I28016212
I0
tp1960
I1
s(I17637244
I1
tp1961
I1
s(I35720234
I1
tp1962
I1
s(I35322452
I2
tp1963
I0
s(I24746231
I0
tp1964
I1
s(I19199869
I4
tp1965
I0
s(I21817657
I3
tp1966
I1
s(I33928554
I3
tp1967
I0
s(I26240228
I0
tp1968
I1
s(I19166610
I0
tp1969
I0
s(I28348485
I4
tp1970
I1
s(I28416678
I0
tp1971
I1
s(I13701374
I0
tp1972
I0
s(I37423445
I0
tp1973
I1
s(I19618514
I2
tp1974
I0
s(I32308382
I3
tp1975
I0
s(I23310630
I1
tp1976
I1
s(I35510590
I2
tp1977
I0
s(I31440326
I0
tp1978
I1
s(I29968046
I0
tp1979
I1
s(I20661902
I0
tp1980
I1
s(I11624362
I0
tp1981
I1
s(I7376019
I0
tp1982
I1
s(I15508970
I0
tp1983
I0
s(I32537153
I0
tp1984
I0
s(I34117408
I2
tp1985
I0
s(I36445193
I1
tp1986
I0
s(I17254599
I1
tp1987
I0
s(I34793225
I0
tp1988
I1
s(I17534484
I1
tp1989
I1
s(I14154851
I4
tp1990
I1
s(I29908931
I1
tp1991
I0
s(I28416559
I1
tp1992
I0
s(I7953623
I1
tp1993
I0
s(I7050562
I0
tp1994
I1
s(I37154201
I0
tp1995
I1
s(I36550795
I1
tp1996
I0
s(I27407485
I2
tp1997
I1
s(I11052920
I2
tp1998
I1
s(I26317418
I1
tp1999
I0
s(I15326069
I1
tp2000
I1
s(I37482313
I5
tp2001
I0
s(I25047254
I1
tp2002
I0
s(I34300499
I1
tp2003
I0
s(I37425477
I2
tp2004
I0
s(I32690945
I1
tp2005
I1
s(I14710221
I0
tp2006
I1
s(I28072914
I0
tp2007
I0
s(I13471083
I0
tp2008
I0
s(I29481485
I2
tp2009
I0
s(I16218482
I0
tp2010
I1
s(I31149123
I0
tp2011
I1
s(I11159668
I2
tp2012
I1
s(I17203403
I2
tp2013
I0
s(I24752712
I0
tp2014
I1
s(I35489107
I4
tp2015
I1
s(I28677840
I2
tp2016
I1
s(I1673483
I0
tp2017
I1
s(I15398904
I3
tp2018
I0
s(I25480433
I0
tp2019
I1
s(I36597386
I1
tp2020
I1
s(I28431519
I3
tp2021
I0
s(I18787830
I1
tp2022
I1
s(I10526579
I1
tp2023
I0
s(I30133281
I1
tp2024
I0
s(I12494930
I1
tp2025
I1
s(I359903
I1
tp2026
I1
s(I33270413
I1
tp2027
I0
s(I30727894
I2
tp2028
I1
s(I23918947
I0
tp2029
I1
s(I34598020
I1
tp2030
I1
s(I15510367
I5
tp2031
I0
s(I24886310
I0
tp2032
I1
s(I13047895
I2
tp2033
I0
s(I34439723
I0
tp2034
I1
s(I21310549
I2
tp2035
I0
s(I22484903
I2
tp2036
I0
s(I1295415
I0
tp2037
I1
s(I32458370
I2
tp2038
I0
s(I20511905
I0
tp2039
I1
s(I27265939
I1
tp2040
I0
s(I29947844
I1
tp2041
I1
s(I16253958
I1
tp2042
I1
s(I36939122
I1
tp2043
I1
s(I35720330
I2
tp2044
I0
s(I23059398
I4
tp2045
I0
s(I21111836
I4
tp2046
I0
s(I31124914
I3
tp2047
I0
s(I15114761
I1
tp2048
I0
s(I29910229
I0
tp2049
I1
s(I24915181
I3
tp2050
I1
s(I29395674
I0
tp2051
I1
s(I24191793
I0
tp2052
I1
s(I24458430
I2
tp2053
I0
s(I35322452
I1
tp2054
I0
s(I30667382
I0
tp2055
I1
s(I22727800
I1
tp2056
I1
s(I4936507
I1
tp2057
I0
s(I33613596
I1
tp2058
I0
s(I34799167
I2
tp2059
I0
s(I5743548
I0
tp2060
I1
s(I34478011
I8
tp2061
I0
s(I33201383
I0
tp2062
I0
s(I20484918
I1
tp2063
I1
s(I32652039
I2
tp2064
I1
s(I7537439
I1
tp2065
I1
s(I19166610
I2
tp2066
I0
s(I35242055
I0
tp2067
I1
s(I19562863
I2
tp2068
I1
s(I15721679
I2
tp2069
I0
s(I25882275
I0
tp2070
I1
s(I26983187
I7
tp2071
I0
s(I30464454
I1
tp2072
I0
s(I21162819
I1
tp2073
I0
s(I24438325
I2
tp2074
I0
s(I16090146
I1
tp2075
I0
s(I11519787
I2
tp2076
I1
s(I11827100
I2
tp2077
I0
s(I34243214
I1
tp2078
I0
s(I29573963
I1
tp2079
I1
s(I17507325
I2
tp2080
I0
s(I5599022
I0
tp2081
I1
s(I15510367
I2
tp2082
I0
s(I29703388
I0
tp2083
I1
s(I31768613
I1
tp2084
I1
s(I14686212
I2
tp2085
I0
s(I31014848
I2
tp2086
I0
s(I11816741
I2
tp2087
I0
s(I35667931
I0
tp2088
I1
s(I36935617
I3
tp2089
I0
s(I15104415
I2
tp2090
I1
s(I2951701
I0
tp2091
I1
s(I36633059
I1
tp2092
I1
s(I22425626
I0
tp2093
I1
s(I32018206
I3
tp2094
I1
s(I10040037
I4
tp2095
I0
s(I21111836
I3
tp2096
I0
s(I19926534
I0
tp2097
I1
s(I22668427
I0
tp2098
I0
s(I18679264
I0
tp2099
I0
s(I35300343
I0
tp2100
I1
s(I31393692
I3
tp2101
I0
s(I30683301
I0
tp2102
I0
s(I5947137
I0
tp2103
I1
s(I37219219
I1
tp2104
I1
s(I36731365
I2
tp2105
I1
s(I16661101
I0
tp2106
I1
s(I33978569
I0
tp2107
I1
s(I34478011
I1
tp2108
I0
s(I15971308
I1
tp2109
I0
s(I27779615
I0
tp2110
I1
s(I33341000
I1
tp2111
I0
s(I34910228
I2
tp2112
I0
s(I645864
I0
tp2113
I0
s(I33402355
I4
tp2114
I1
s(I5599022
I1
tp2115
I0
s(I29192826
I2
tp2116
I0
s(I30198481
I2
tp2117
I1
s(I3708418
I0
tp2118
I1
s(I16615630
I1
tp2119
I1
s(I9416934
I2
tp2120
I0
s(I26983187
I12
tp2121
I0
s(I31619128
I2
tp2122
I0
s(I31617530
I0
tp2123
I1
s(I15795416
I1
tp2124
I0
s(I25269476
I0
tp2125
I1
s(I37397296
I1
tp2126
I0
s(I28246655
I1
tp2127
I0
s(I33948731
I0
tp2128
I0
s(I25141467
I1
tp2129
I0
s(I10099710
I0
tp2130
I0
s(I7490408
I1
tp2131
I0
s(I34008175
I0
tp2132
I0
s(I4791080
I3
tp2133
I0
s(I32458370
I1
tp2134
I0
s(I37397296
I2
tp2135
I1
s(I3458542
I1
tp2136
I0
s(I35781083
I1
tp2137
I1
s(I15062205
I0
tp2138
I0
s(I36464357
I0
tp2139
I0
s(I11668603
I5
tp2140
I0
s(I35025400
I1
tp2141
I0
s(I3738269
I4
tp2142
I0
s(I31649843
I1
tp2143
I1
s(I24042596
I1
tp2144
I1
s(I2654689
I1
tp2145
I0
s(I12012818
I1
tp2146
I0
s(I11198718
I0
tp2147
I0
s(I6611563
I0
tp2148
I1
s(I19382088
I3
tp2149
I0
s(I25068218
I1
tp2150
I1
s(I8780912
I4
tp2151
I1
s(I37128072
I1
tp2152
I1
s(I23832259
I1
tp2153
I1
s(I13920235
I0
tp2154
I1
s(I36845683
I2
tp2155
I0
s(I32358269
I2
tp2156
I0
s(I17307474
I1
tp2157
I1
s(I29058135
I1
tp2158
I1
s(I26812595
I0
tp2159
I1
s(I28059257
I3
tp2160
I0
s(I5771039
I0
tp2161
I0
s(I9538171
I0
tp2162
I1
s(I3947654
I4
tp2163
I1
s(I13374028
I1
tp2164
I0
s(I17023994
I1
tp2165
I0
s(I933612
I0
tp2166
I0
s(I16019624
I1
tp2167
I0
s(I34114554
I3
tp2168
I0
s(I10112614
I1
tp2169
I1
s(I28898735
I0
tp2170
I1
s(I31416465
I1
tp2171
I0
s(I31739074
I1
tp2172
I0
s(I31759951
I1
tp2173
I0
s(I34546949
I1
tp2174
I0
s(I4696418
I0
tp2175
I1
s(I8948773
I0
tp2176
I0
s(I31349527
I1
tp2177
I1
s(I19716770
I0
tp2178
I0
s(I22961541
I0
tp2179
I1
s(I37106934
I1
tp2180
I0
s(I35526501
I1
tp2181
I0
s(I30071618
I0
tp2182
I1
s(I13497170
I1
tp2183
I0
s(I32214596
I0
tp2184
I0
s(I9232944
I2
tp2185
I0
s(I3121979
I1
tp2186
I1
s(I32665833
I1
tp2187
I1
s(I4660250
I1
tp2188
I0
s(I36799190
I4
tp2189
I0
s(I20198951
I0
tp2190
I1
s(I33319664
I2
tp2191
I0
s(I17734781
I0
tp2192
I1
s(I5743548
I1
tp2193
I1
s(I10889564
I2
tp2194
I0
s(I30784217
I0
tp2195
I0
s(I20212171
I1
tp2196
I1
s(I21015447
I0
tp2197
I0
s(I34773317
I0
tp2198
I1
s(I28418901
I1
tp2199
I0
s(I1210099
I0
tp2200
I0
s(I3277047
I1
tp2201
I0
s(I8702772
I0
tp2202
I1
s(I36806340
I1
tp2203
I0
s(I7700545
I1
tp2204
I1
s(I20524146
I1
tp2205
I0
s(I12923835
I0
tp2206
I1
s(I9630668
I1
tp2207
I0
s(I1144702
I0
tp2208
I0
s(I28059257
I4
tp2209
I0
s(I897362
I2
tp2210
I0
s(I15456166
I1
tp2211
I1
s(I18141698
I1
tp2212
I1
s(I31562534
I0
tp2213
I0
s(I14808945
I0
tp2214
I1
s(I11902626
I0
tp2215
I0
s(I35346425
I0
tp2216
I0
s(I34057756
I1
tp2217
I0
s(I20337561
I1
tp2218
I0
s(I10429919
I3
tp2219
I0
s(I14856385
I0
tp2220
I0
s(I9849828
I1
tp2221
I0
s(I3387691
I0
tp2222
I1
s(I24642669
I2
tp2223
I1
s(I25744399
I0
tp2224
I1
s(I20283478
I0
tp2225
I1
s(I30338961
I2
tp2226
I0
s(I18590658
I0
tp2227
I0
s(I21905433
I0
tp2228
I1
s(I33519408
I0
tp2229
I1
s(I15418751
I3
tp2230
I0
s(I34066053
I0
tp2231
I0
s(I31611288
I1
tp2232
I1
s(I2389846
I1
tp2233
I1
s(I25649412
I0
tp2234
I0
s(I508657
I4
tp2235
I0
s(I25104929
I2
tp2236
I0
s(I26787410
I0
tp2237
I1
s(I14258317
I2
tp2238
I0
s(I22281406
I0
tp2239
I0
s(I17809274
I1
tp2240
I1
s(I34193415
I1
tp2241
I0
s(I187273
I3
tp2242
I0
s(I21808905
I0
tp2243
I1
s(I899138
I1
tp2244
I0
s(I1305532
I2
tp2245
I0
s(I29968046
I1
tp2246
I1
s(I21538859
I1
tp2247
I0
s(I8017432
I2
tp2248
I0
s(I5808970
I0
tp2249
I1
s(I33800210
I0
tp2250
I1
s(I15892598
I1
tp2251
I1
s(I4402383
I1
tp2252
I1
s(I36921573
I2
tp2253
I0
s(I28036818
I1
tp2254
I0
s(I13548996
I0
tp2255
I1
s(I10342939
I0
tp2256
I0
s(I31247678
I1
tp2257
I0
s(I34936864
I0
tp2258
I1
s(I27857842
I2
tp2259
I0
s(I18250516
I2
tp2260
I1
s(I9542738
I5
tp2261
I1
s(I6071784
I0
tp2262
I1
s(I16689457
I1
tp2263
I0
s(I10870736
I2
tp2264
I1
s(I11388032
I2
tp2265
I1
s(I14783438
I1
tp2266
I0
s(I2148119
I0
tp2267
I1
s(I13728878
I0
tp2268
I1
s(I1389180
I2
tp2269
I1
s(I12901066
I0
tp2270
I1
s(I30405409
I0
tp2271
I0
s(I31957215
I0
tp2272
I1
s(I33069366
I0
tp2273
I0
s(I32907015
I0
tp2274
I0
s(I11065100
I1
tp2275
I0
s(I21668606
I0
tp2276
I0
s(I17103701
I0
tp2277
I0
s(I26498100
I2
tp2278
I0
s(I26179639
I1
tp2279
I1
s(I28387109
I3
tp2280
I0
s(I9487389
I0
tp2281
I0
s(I2170228
I0
tp2282
I1
s(I36967883
I0
tp2283
I0
s(I13882808
I1
tp2284
I0
s(I24833817
I1
tp2285
I1
s(I35595836
I0
tp2286
I1
s(I465144
I1
tp2287
I0
s(I28348300
I1
tp2288
I1
s(I33019600
I0
tp2289
I1
s(I16421050
I2
tp2290
I0
s(I31011565
I0
tp2291
I1
s(I15104415
I1
tp2292
I0
s(I9013354
I3
tp2293
I1
s(I27178829
I1
tp2294
I0
s(I18281342
I1
tp2295
I0
s(I11943980
I1
tp2296
I1
s(I11340765
I1
tp2297
I1
s(I22741040
I0
tp2298
I1
s(I25411441
I1
tp2299
I0
s(I19716770
I1
tp2300
I0
s(I11611183
I1
tp2301
I0
s(I17641195
I0
tp2302
I1
s(I33201383
I1
tp2303
I0
s(I23642406
I2
tp2304
I1
s(I27823447
I0
tp2305
I0
s(I34114554
I4
tp2306
I0
s(I27670683
I0
tp2307
I0
s(I22657498
I0
tp2308
I1
s(I30837683
I0
tp2309
I1
s(I36799190
I1
tp2310
I0
s(I25537262
I2
tp2311
I0
s(I23008799
I0
tp2312
I0
s(I29831030
I0
tp2313
I1
s(I23429426
I1
tp2314
I1
s(I12576313
I1
tp2315
I0
s(I2621549
I1
tp2316
I1
s(I4201562
I3
tp2317
I0
s(I2716894
I3
tp2318
I0
s(I29192826
I3
tp2319
I0
s(I9857382
I1
tp2320
I1
s(I17504995
I1
tp2321
I1
s(I37018019
I2
tp2322
I0
s(I22567247
I1
tp2323
I0
s(I25025291
I0
tp2324
I1
s(I8714744
I3
tp2325
I0
s(I13584299
I1
tp2326
I0
s(I17122268
I1
tp2327
I0
s(I36017497
I1
tp2328
I0
s(I2005759
I2
tp2329
I0
s(I37760124
I0
tp2330
I0
s(I23297197
I2
tp2331
I0
s(I17958069
I3
tp2332
I0
s(I4534486
I1
tp2333
I0
s(I33729888
I0
tp2334
I1
s(I22019213
I1
tp2335
I1
s(I25100105
I0
tp2336
I0
s(I36524627
I1
tp2337
I0
s(I17144809
I1
tp2338
I0
s(I7096090
I1
tp2339
I0
s(I12227084
I0
tp2340
I1
s(I3724488
I1
tp2341
I0
s(I31572425
I0
tp2342
I1
s(I37116967
I1
tp2343
I0
s(I25137972
I1
tp2344
I0
s(I17910359
I2
tp2345
I1
s(I28267563
I0
tp2346
I0
s(I21125897
I2
tp2347
I0
s(I24481614
I1
tp2348
I0
s(I24418864
I0
tp2349
I0
s(I33575575
I0
tp2350
I1
s(I11390421
I1
tp2351
I0
s(I14601544
I5
tp2352
I0
s(I28857930
I0
tp2353
I1
s(I32935585
I0
tp2354
I0
s(I28104377
I3
tp2355
I1
s(I28015044
I1
tp2356
I0
s(I26487617
I1
tp2357
I1
s(I6941965
I0
tp2358
I1
s(I29538559
I1
tp2359
I1
s(I25883410
I0
tp2360
I1
s(I21736784
I2
tp2361
I0
s(I31162560
I0
tp2362
I1
s(I23699378
I3
tp2363
I0
s(I11488877
I1
tp2364
I1
s(I18802563
I0
tp2365
I0
s(I35293171
I4
tp2366
I0
s(I30229104
I3
tp2367
I1
s(I27127176
I0
tp2368
I0
s(I36835793
I1
tp2369
I0
s(I28928049
I1
tp2370
I0
s(I33431816
I0
tp2371
I0
s(I31404238
I1
tp2372
I0
s(I20825173
I4
tp2373
I0
s(I8302519
I0
tp2374
I1
s(I32902648
I0
tp2375
I0
s(I15009180
I1
tp2376
I1
s(I34600056
I1
tp2377
I0
s(I29153805
I2
tp2378
I1
s(I34137398
I1
tp2379
I1
s(I22048792
I0
tp2380
I0
s(I19209860
I0
tp2381
I0
s(I14208280
I0
tp2382
I1
s(I30904903
I0
tp2383
I1
s(I31193012
I1
tp2384
I0
s(I29308274
I2
tp2385
I0
s(I12713743
I0
tp2386
I0
s(I15782606
I1
tp2387
I0
s(I33577686
I0
tp2388
I1
s(I30955735
I0
tp2389
I1
s(I12413317
I0
tp2390
I0
s(I22912598
I1
tp2391
I0
s(I24495059
I1
tp2392
I1
s(I9020831
I0
tp2393
I1
s(I22674166
I0
tp2394
I1
s(I11830474
I2
tp2395
I1
s(I34980059
I0
tp2396
I1
s(I22158110
I1
tp2397
I0
s(I3984539
I1
tp2398
I1
s(I16500670
I0
tp2399
I1
s(I11762422
I0
tp2400
I0
s(I14508570
I0
tp2401
I1
s(I14001382
I1
tp2402
I0
s(I30578068
I1
tp2403
I0
s(I32256393
I0
tp2404
I1
s(I18727686
I0
tp2405
I0
s(I19882621
I1
tp2406
I0
s(I17334702
I1
tp2407
I0
s(I17598881
I3
tp2408
I0
s(I16402525
I0
tp2409
I1
s(I22332069
I0
tp2410
I1
s(I30242208
I4
tp2411
I0
s(I13983620
I2
tp2412
I1
s(I35428388
I1
tp2413
I0
s(I25104929
I0
tp2414
I0
s(I29509781
I1
tp2415
I0
s(I28356451
I1
tp2416
I0
s(I18507244
I1
tp2417
I0
s(I18474538
I4
tp2418
I0
s(I24445991
I1
tp2419
I1
s(I35952815
I3
tp2420
I0
s(I32659345
I0
tp2421
I1
s(I20445470
I2
tp2422
I1
s(I1042751
I1
tp2423
I1
s(I5470210
I0
tp2424
I0
s(I31370701
I0
tp2425
I0
s(I34137572
I0
tp2426
I0
s(I5321466
I0
tp2427
I1
s(I15688462
I3
tp2428
I1
s(I296055
I0
tp2429
I1
s(I1767565
I0
tp2430
I0
s(I23368164
I0
tp2431
I1
s(I23575195
I1
tp2432
I1
s(I29153805
I1
tp2433
I0
s(I34193415
I3
tp2434
I0
s(I10507011
I0
tp2435
I1
s(I37316698
I0
tp2436
I1
s(I4112561
I0
tp2437
I0
s(I34155132
I0
tp2438
I0
s(I24406677
I2
tp2439
I0
s(I21039772
I1
tp2440
I0
s(I22520948
I0
tp2441
I0
s(I32687664
I1
tp2442
I0
s(I29087010
I0
tp2443
I1
s(I34638457
I0
tp2444
I1
s(I26163563
I1
tp2445
I1
s(I6998245
I0
tp2446
I1
s(I29041324
I0
tp2447
I1
s(I28665356
I1
tp2448
I1
s(I22591297
I0
tp2449
I1
s(I19241166
I2
tp2450
I1
s(I30170614
I1
tp2451
I1
s(I34769801
I1
tp2452
I1
s(I35431172
I0
tp2453
I1
s(I10099326
I1
tp2454
I1
s(I8137056
I0
tp2455
I0
s(I15401415
I0
tp2456
I1
s(I21739450
I1
tp2457
I1
s(I25690354
I2
tp2458
I0
s(I20695432
I1
tp2459
I0
s(I3637419
I2
tp2460
I0
s(I706755
I1
tp2461
I1
s(I30909414
I0
tp2462
I0
s(I28244029
I0
tp2463
I1
s(I29998052
I16
tp2464
I0
s(I12713743
I1
tp2465
I0
s(I34914655
I4
tp2466
I0
s(I17555470
I1
tp2467
I1
s(I10126668
I4
tp2468
I0
s(I1029207
I0
tp2469
I0
s(I27914360
I2
tp2470
I0
s(I13247749
I0
tp2471
I1
s(I36949277
I3
tp2472
I0
s(I27885989
I1
tp2473
I1
s(I19529825
I0
tp2474
I1
s(I17534484
I4
tp2475
I0
s(I31847577
I2
tp2476
I0
s(I11314980
I0
tp2477
I1
s(I25467360
I1
tp2478
I0
s(I25457718
I3
tp2479
I1
s(I22775168
I0
tp2480
I0
s(I5276837
I2
tp2481
I0
s(I18839875
I0
tp2482
I1
s(I34452644
I4
tp2483
I0
s(I31498516
I1
tp2484
I0
s(I14677341
I0
tp2485
I0
s(I33972303
I1
tp2486
I0
s(I24325232
I1
tp2487
I0
s(I9671165
I1
tp2488
I1
s(I32625593
I0
tp2489
I0
s(I35913509
I1
tp2490
I0
s(I14285049
I2
tp2491
I0
s(I35232897
I0
tp2492
I1
s(I35220031
I0
tp2493
I0
s(I37119314
I1
tp2494
I0
s(I9288169
I1
tp2495
I0
s(I24834560
I1
tp2496
I1
s(I26059710
I1
tp2497
I1
s(I27139744
I0
tp2498
I1
s(I25859572
I3
tp2499
I0
s(I3068839
I1
tp2500
I1
s(I26856378
I2
tp2501
I0
s(I26499216
I1
tp2502
I0
s(I3862310
I3
tp2503
I0
s(I6389577
I1
tp2504
I1
s(I31202918
I2
tp2505
I0
s(I7132861
I2
tp2506
I1
s(I37262062
I0
tp2507
I1
s(I20825173
I1
tp2508
I0
s(I6029912
I1
tp2509
I1
s(I27857842
I4
tp2510
I0
s(I17811168
I3
tp2511
I0
s(I34452644
I0
tp2512
I0
s(I30777540
I1
tp2513
I0
s(I27615872
I2
tp2514
I0
s(I10126668
I3
tp2515
I0
s(I24994284
I2
tp2516
I1
s(I33401529
I0
tp2517
I1
s(I17534484
I3
tp2518
I0
s(I33811240
I0
tp2519
I1
s(I14014292
I1
tp2520
I0
s(I29224567
I2
tp2521
I0
s(I20452340
I0
tp2522
I1
s(I31842707
I0
tp2523
I1
s(I2286557
I2
tp2524
I0
s(I26205922
I1
tp2525
I0
s(I34452644
I3
tp2526
I0
s(I26498794
I0
tp2527
I1
s(I14436970
I0
tp2528
I0
s(I36971201
I0
tp2529
I1
s(I12986272
I0
tp2530
I1
s(I24285311
I0
tp2531
I0
s(I35261899
I0
tp2532
I1
s(I33347648
I1
tp2533
I1
s(I22083378
I0
tp2534
I0
s(I1527689
I0
tp2535
I1
s(I25946008
I0
tp2536
I1
s(I35252265
I1
tp2537
I0
s(I34206921
I2
tp2538
I0
s(I3495524
I1
tp2539
I1
s(I35234823
I1
tp2540
I0
s(I18088496
I2
tp2541
I0
s(I20339462
I3
tp2542
I0
s(I19799490
I0
tp2543
I1
s(I18854425
I0
tp2544
I1
s(I24314839
I0
tp2545
I1
s(I37119071
I2
tp2546
I0
s(I2034584
I1
tp2547
I0
s(I16233528
I0
tp2548
I0
s(I25277092
I0
tp2549
I1
s(I24072567
I1
tp2550
I1
s(I15708416
I0
tp2551
I1
s(I36242061
I2
tp2552
I0
s(I29998052
I6
tp2553
I1
s(I15183718
I1
tp2554
I1
s(I27573800
I1
tp2555
I0
s(I21208724
I1
tp2556
I0
s(I30002261
I2
tp2557
I0
s(I25996817
I1
tp2558
I0
s(I7471055
I1
tp2559
I1
s(I18952977
I1
tp2560
I0
s(I18540321
I5
tp2561
I1
s(I31729552
I0
tp2562
I0
s(I31193239
I1
tp2563
I0
s(I2237624
I1
tp2564
I0
s(I10108368
I5
tp2565
I0
s(I7933596
I7
tp2566
I0
s(I35293171
I1
tp2567
I0
s(I1606436
I1
tp2568
I0
s(I30528673
I1
tp2569
I0
s(I9670866
I1
tp2570
I0
s(I15340713
I1
tp2571
I0
s(I23323675
I0
tp2572
I1
s(I26705235
I1
tp2573
I0
s(I26126880
I0
tp2574
I1
s(I1175208
I2
tp2575
I1
s(I32424555
I2
tp2576
I0
s(I22122385
I0
tp2577
I1
s(I3947313
I1
tp2578
I1
s(I17368930
I1
tp2579
I1
s(I6316726
I0
tp2580
I0
s(I23046827
I0
tp2581
I1
s(I16402525
I2
tp2582
I0
s(I3966201
I1
tp2583
I1
s(I10282693
I0
tp2584
I1
s(I22576924
I0
tp2585
I0
s(I32102801
I1
tp2586
I1
s(I25057912
I0
tp2587
I0
s(I9950474
I2
tp2588
I0
s(I15109165
I1
tp2589
I1
s(I29263680
I0
tp2590
I1
s(I2363954
I3
tp2591
I0
s(I37113173
I0
tp2592
I1
s(I26871083
I7
tp2593
I0
s(I31364390
I1
tp2594
I0
s(I24787224
I4
tp2595
I0
s(I25641980
I2
tp2596
I0
s(I34569966
I1
tp2597
I1
s(I15459675
I1
tp2598
I0
s(I17471682
I3
tp2599
I0
s(I31936573
I0
tp2600
I0
s(I2358890
I0
tp2601
I1
s(I37659598
I2
tp2602
I1
s(I20359968
I2
tp2603
I0
s(I23297197
I0
tp2604
I1
s(I25296219
I0
tp2605
I1
s(I21125897
I0
tp2606
I1
s(I17254599
I0
tp2607
I0
s(I2588364
I0
tp2608
I1
s(I7907848
I0
tp2609
I0
s(I9630668
I2
tp2610
I0
s(I10636203
I2
tp2611
I1
s(I12573992
I0
tp2612
I0
s(I18108438
I0
tp2613
I1
s(I10156909
I0
tp2614
I0
s(I7508774
I2
tp2615
I1
s(I32798908
I1
tp2616
I1
s(I19303429
I0
tp2617
I1
s(I24495452
I0
tp2618
I1
s(I14583576
I1
tp2619
I1
s(I34419926
I1
tp2620
I0
s(I2082387
I1
tp2621
I0
s(I21332785
I0
tp2622
I0
s(I29867175
I2
tp2623
I1
s(I31556782
I0
tp2624
I1
s(I36364512
I1
tp2625
I0
s(I23441228
I1
tp2626
I0
s(I33431816
I2
tp2627
I0
s(I11239815
I1
tp2628
I0
s(I35774261
I1
tp2629
I0
s(I24746231
I1
tp2630
I1
s(I34859683
I2
tp2631
I0
s(I32679481
I0
tp2632
I1
s(I22953550
I4
tp2633
I0
s(I6290105
I0
tp2634
I0
s(I27419345
I3
tp2635
I1
s(I22214949
I0
tp2636
I1
s(I20024490
I1
tp2637
I0
s(I12494277
I1
tp2638
I0
s(I15668416
I3
tp2639
I0
s(I15815999
I0
tp2640
I1
s(I7835030
I0
tp2641
I0
s(I9460992
I1
tp2642
I1
s(I35481842
I0
tp2643
I1
s(I28280507
I0
tp2644
I1
s(I12081704
I2
tp2645
I0
s(I28766133
I0
tp2646
I0
s(I20249149
I1
tp2647
I1
s(I28870344
I1
tp2648
I0
s(I25728442
I0
tp2649
I0
s(I13390315
I2
tp2650
I0
s(I14572495
I0
tp2651
I1
s(I2983959
I0
tp2652
I1
s(I18772706
I1
tp2653
I1
s(I27112449
I1
tp2654
I0
s(I5276837
I4
tp2655
I1
s(I21513187
I0
tp2656
I0
s(I30793198
I0
tp2657
I1
s(I11624362
I1
tp2658
I0
s(I21039772
I0
tp2659
I1
s(I15711845
I1
tp2660
I0
s(I35559958
I1
tp2661
I0
s(I8892307
I1
tp2662
I0
s(I33970546
I1
tp2663
I1
s(I27724543
I1
tp2664
I1
s(I9364754
I0
tp2665
I0
s(I3576512
I0
tp2666
I0
s(I30507442
I3
tp2667
I0
s(I34637002
I1
tp2668
I0
s(I15620039
I1
tp2669
I0
s(I28795561
I2
tp2670
I0
s(I27356890
I0
tp2671
I1
s(I25002150
I1
tp2672
I0
s(I37482313
I3
tp2673
I0
s(I28016212
I1
tp2674
I1
s(I555344
I0
tp2675
I1
s(I4201562
I4
tp2676
I0
s(I19199869
I3
tp2677
I0
s(I23635576
I1
tp2678
I0
s(I33928554
I0
tp2679
I1
s(I30685363
I1
tp2680
I0
s(I26240228
I1
tp2681
I1
s(I32907015
I2
tp2682
I0
s(I409732
I0
tp2683
I1
s(I35781083
I0
tp2684
I1
s(I13701374
I1
tp2685
I0
s(I19618514
I3
tp2686
I0
s(I32308382
I0
tp2687
I0
s(I20224501
I0
tp2688
I0
s(I35510590
I3
tp2689
I1
s(I19288469
I1
tp2690
I0
s(I31440326
I1
tp2691
I1
s(I36071592
I0
tp2692
I1
s(I33711511
I2
tp2693
I0
s(I11691679
I4
tp2694
I0
s(I20661902
I1
tp2695
I0
s(I31137766
I2
tp2696
I0
s(I15508970
I1
tp2697
I1
s(I20825173
I3
tp2698
I0
s(I34117408
I3
tp2699
I0
s(I1783251
I1
tp2700
I0
s(I16257087
I1
tp2701
I1
s(I5532498
I0
tp2702
I1
s(I27331006
I0
tp2703
I1
s(I26430002
I0
tp2704
I1
s(I29908931
I0
tp2705
I1
s(I32623285
I1
tp2706
I1
s(I28416559
I0
tp2707
I1
s(I11340765
I0
tp2708
I1
s(I16253958
I0
tp2709
I1
s(I36550795
I0
tp2710
I0
s(I27407485
I1
tp2711
I1
s(I26871083
I1
tp2712
I0
s(I17426202
I2
tp2713
I1
s(I17598881
I0
tp2714
I0
s(I37482313
I4
tp2715
I0
s(I13098173
I3
tp2716
I0
s(I34300499
I0
tp2717
I0
s(I37425477
I1
tp2718
I0
s(I32690945
I0
tp2719
I1
s(I25233885
I1
tp2720
I0
s(I27551521
I0
tp2721
I1
s(I28072914
I1
tp2722
I0
s(I23795777
I2
tp2723
I0
s(I14211597
I1
tp2724
I0
s(I16143648
I0
tp2725
I1
s(I11159668
I3
tp2726
I0
s(I3208076
I0
tp2727
I1
s(I34799167
I4
tp2728
I0
s(I13471083
I2
tp2729
I0
s(I22700457
I3
tp2730
I1
s(I19369025
I0
tp2731
I0
s(I28431519
I2
tp2732
I0
s(I24747191
I1
tp2733
I1
s(I15721679
I4
tp2734
I0
s(I10127973
I1
tp2735
I0
s(I23231840
I3
tp2736
I0
s(I26983187
I1
tp2737
I0
s(I36344619
I2
tp2738
I0
s(I33270413
I0
tp2739
I0
s(I30727894
I3
tp2740
I1
s(I4936507
I0
tp2741
I0
s(I12573992
I2
tp2742
I0
s(I11444222
I0
tp2743
I1
s(I37088428
I0
tp2744
I1
s(I15926531
I0
tp2745
I1
s(I24674723
I1
tp2746
I1
s(I32665833
I0
tp2747
I1
s(I10303797
I3
tp2748
I0
s(I35667931
I1
tp2749
I1
s(I28387109
I0
tp2750
I0
s(I22221858
I1
tp2751
I0
s(I4868900
I3
tp2752
I0
s(I28404183
I1
tp2753
I0
s(I27265939
I0
tp2754
I1
s(I27960965
I1
tp2755
I0
s(I6316726
I1
tp2756
I0
s(I35720330
I3
tp2757
I0
s(I26871083
I6
tp2758
I0
s(I3065624
I1
tp2759
I0
s(I31124914
I0
tp2760
I1
s(I6493681
I1
tp2761
I0
s(I8682336
I0
tp2762
I1
s(I24915181
I2
tp2763
I0
s(I29395674
I1
tp2764
I0
s(I17486578
I2
tp2765
I0
s(I22042490
I0
tp2766
I1
s(I35805891
I1
tp2767
I1
s(I30296726
I0
tp2768
I0
s(I25088066
I0
tp2769
I0
s(I10647449
I1
tp2770
I0
s(I28416678
I2
tp2771
I1
s(I10602071
I0
tp2772
I0
s(I25233885
I0
tp2773
I0
s(I22700457
I4
tp2774
I1
s(I34910228
I4
tp2775
I0
s(I7537439
I0
tp2776
I1
s(I19079040
I1
tp2777
I1
s(I2257101
I0
tp2778
I0
s(I20959022
I0
tp2779
I1
s(I36186624
I1
tp2780
I1
s(I35633421
I2
tp2781
I0
s(I26983187
I6
tp2782
I0
s(I6943912
I1
tp2783
I0
s(I24438325
I1
tp2784
I0
s(I9013354
I4
tp2785
I0
s(I30272538
I2
tp2786
I0
s(I26889734
I0
tp2787
I0
s(I11827100
I3
tp2788
I1
s(I5873969
I2
tp2789
I0
s(I17507325
I1
tp2790
I1
s(I20959022
I1
tp2791
I1
s(I29703388
I1
tp2792
I0
s(I31768613
I0
tp2793
I0
s(I31146021
I1
tp2794
I0
s(I28907503
I2
tp2795
I1
s(I35619038
I4
tp2796
I0
s(I18507736
I0
tp2797
I1
s(I6762695
I2
tp2798
I1
s(I19917545
I1
tp2799
I1
s(I36935617
I2
tp2800
I0
s(I36149707
I0
tp2801
I0
s(I29761118
I0
tp2802
I1
s(I22425626
I1
tp2803
I1
s(I18673420
I0
tp2804
I0
s(I25713738
I0
tp2805
I1
s(I31456902
I1
tp2806
I0
s(I5914627
I1
tp2807
I1
s(I36785204
I1
tp2808
I1
s(I22668427
I3
tp2809
I0
s(I3575359
I0
tp2810
I1
s(I2939050
I0
tp2811
I1
s(I25705612
I4
tp2812
I1
s(I36971758
I0
tp2813
I1
s(I33607716
I6
tp2814
I0
s(I14555771
I0
tp2815
I0
s(I23298460
I1
tp2816
I0
s(I6205592
I0
tp2817
I1
s(I34478011
I0
tp2818
I0
s(I13103195
I1
tp2819
I1
s(I29384588
I1
tp2820
I1
s(I24144766
I0
tp2821
I1
s(I34910228
I3
tp2822
I0
s(I645864
I1
tp2823
I0
s(I3862310
I1
tp2824
I1
s(I7086295
I1
tp2825
I0
s(I22509908
I1
tp2826
I1
s(I30198481
I1
tp2827
I0
s(I25690354
I5
tp2828
I0
s(I100210
I4
tp2829
I0
s(I14808945
I2
tp2830
I0
s(I26983187
I15
tp2831
I0
s(I3947654
I2
tp2832
I1
s(I582723
I1
tp2833
I0
s(I35252265
I5
tp2834
I0
s(I13407560
I1
tp2835
I1
s(I34114554
I2
tp2836
I0
s(I28246655
I0
tp2837
I1
s(I18706785
I1
tp2838
I1
s(I34016799
I1
tp2839
I0
s(I25141467
I0
tp2840
I1
s(I34701261
I1
tp2841
I1
s(I10099710
I1
tp2842
I0
s(I17288571
I1
tp2843
I1
s(I32821122
I0
tp2844
I1
s(I15547217
I0
tp2845
I1
s(I31146021
I0
tp2846
I0
s(I22953550
I1
tp2847
I0
s(I11140628
I0
tp2848
I0
s(I36559053
I0
tp2849
I1
s(I36479374
I1
tp2850
I1
s(I8345190
I2
tp2851
I1
s(I11668603
I4
tp2852
I0
s(I3738269
I3
tp2853
I0
s(I31649843
I0
tp2854
I1
s(I25649412
I2
tp2855
I0
s(I2654689
I0
tp2856
I0
s(I14686212
I1
tp2857
I0
s(I25705612
I3
tp2858
I0
s(I31920197
I2
tp2859
I0
s(I21439948
I1
tp2860
I0
s(I8780912
I5
tp2861
I0
s(I12081704
I7
tp2862
I0
s(I36731365
I1
tp2863
I1
s(I25345843
I1
tp2864
I1
s(I18040702
I1
tp2865
I1
s(I34715227
I0
tp2866
I1
s(I31456902
I0
tp2867
I0
s(I24024966
I1
tp2868
I0
s(I32358269
I1
tp2869
I0
s(I28767484
I0
tp2870
I0
s(I28059257
I2
tp2871
I0
s(I35596269
I2
tp2872
I0
s(I25002459
I2
tp2873
I1
s(I28566041
I3
tp2874
I0
s(I28907503
I3
tp2875
I0
s(I37348050
I1
tp2876
I0
s(I28774852
I0
tp2877
I1
s(I26725669
I4
tp2878
I0
s(I11066400
I0
tp2879
I1
s(I933612
I1
tp2880
I0
s(I20295134
I0
tp2881
I1
s(I22769503
I0
tp2882
I1
s(I31416465
I0
tp2883
I1
s(I20445672
I0
tp2884
I1
s(I31759951
I0
tp2885
I1
s(I23402150
I0
tp2886
I1
s(I4696418
I1
tp2887
I0
s(I28687087
I1
tp2888
I0
s(I30515888
I0
tp2889
I1
s(I31349527
I0
tp2890
I1
s(I32998355
I0
tp2891
I1
s(I19395350
I1
tp2892
I0
s(I22727800
I0
tp2893
I0
s(I32214596
I1
tp2894
I0
s(I17167297
I1
tp2895
I0
s(I1210099
I1
tp2896
I0
s(I30002261
I1
tp2897
I0
s(I3121979
I0
tp2898
I1
s(I33569374
I1
tp2899
I0
s(I20385957
I0
tp2900
I1
s(I9017260
I0
tp2901
I1
s(I27827982
I4
tp2902
I0
s(I5447428
I1
tp2903
I0
s(I37758227
I4
tp2904
I0
s(I2716894
I1
tp2905
I0
s(I18157559
I2
tp2906
I0
s(I26497396
I0
tp2907
I1
s(I20212171
I0
tp2908
I1
s(I21015447
I3
tp2909
I0
s(I16107526
I2
tp2910
I1
s(I2983959
I2
tp2911
I0
s(I29571644
I0
tp2912
I0
s(I36806340
I2
tp2913
I0
s(I7700545
I0
tp2914
I1
s(I29318963
I1
tp2915
I0
s(I3458542
I6
tp2916
I0
s(I31137183
I1
tp2917
I0
s(I1144702
I1
tp2918
I0
s(I24195898
I1
tp2919
I0
s(I28566041
I4
tp2920
I0
s(I33587404
I0
tp2921
I1
s(I36226959
I0
tp2922
I1
s(I11902626
I1
tp2923
I0
s(I9465236
I0
tp2924
I0
s(I31387880
I1
tp2925
I1
s(I20224501
I4
tp2926
I0
s(I37685718
I1
tp2927
I1
s(I18024402
I1
tp2928
I0
s(I10429919
I2
tp2929
I0
s(I32077660
I0
tp2930
I1
s(I6235146
I0
tp2931
I0
s(I20672238
I2
tp2932
I0
s(I22856566
I0
tp2933
I1
s(I2382905
I1
tp2934
I0
s(I21423213
I1
tp2935
I0
s(I16391808
I0
tp2936
I1
s(I8916209
I1
tp2937
I0
s(I22122385
I1
tp2938
I1
s(I18590658
I1
tp2939
I0
s(I26629789
I2
tp2940
I1
s(I30214489
I1
tp2941
I1
s(I24097930
I1
tp2942
I1
s(I2743712
I3
tp2943
I0
s(I26787410
I1
tp2944
I1
s(I21212484
I0
tp2945
I0
s(I18085030
I4
tp2946
I0
s(I13882808
I0
tp2947
I0
s(I21211756
I1
tp2948
I1
s(I6540412
I2
tp2949
I0
s(I28356451
I0
tp2950
I0
s(I35432378
I0
tp2951
I1
s(I21736784
I3
tp2952
I0
s(I29384588
I0
tp2953
I0
s(I34141855
I3
tp2954
I1
s(I21885814
I0
tp2955
I1
s(I20593215
I4
tp2956
I0
s(I11207302
I2
tp2957
I0
s(I27743031
I1
tp2958
I0
s(I36921573
I1
tp2959
I1
s(I29969430
I1
tp2960
I0
s(I22462728
I0
tp2961
I1
s(I13548996
I1
tp2962
I1
s(I37154201
I1
tp2963
I0
s(I34936864
I1
tp2964
I1
s(I27857842
I3
tp2965
I0
s(I32295637
I0
tp2966
I0
s(I9542738
I2
tp2967
I1
s(I6071784
I1
tp2968
I0
s(I10211546
I0
tp2969
I1
s(I16689457
I0
tp2970
I1
s(I10961378
I2
tp2971
I0
s(I27665039
I1
tp2972
I0
s(I23039664
I1
tp2973
I1
s(I13728878
I1
tp2974
I0
s(I35208832
I0
tp2975
I1
s(I12901066
I1
tp2976
I0
s(I33144460
I0
tp2977
I1
s(I36436065
I1
tp2978
I1
s(I11065100
I2
tp2979
I1
s(I21668606
I1
tp2980
I0
s(I24900064
I0
tp2981
I1
s(I37365033
I1
tp2982
I0
s(I2468334
I0
tp2983
I1
s(I32670153
I2
tp2984
I1
s(I19888255
I0
tp2985
I1
s(I33296707
I1
tp2986
I1
s(I2170228
I1
tp2987
I0
s(I36967883
I3
tp2988
I0
s(I25047254
I0
tp2989
I0
s(I27576462
I1
tp2990
I0
s(I7953623
I0
tp2991
I1
s(I26187054
I0
tp2992
I1
s(I36804586
I1
tp2993
I1
s(I18765094
I1
tp2994
I0
s(I34444319
I1
tp2995
I1
s(I15104415
I0
tp2996
I0
s(I27178829
I0
tp2997
I1
s(I20431617
I2
tp2998
I0
s(I28486144
I0
tp2999
I1
s(I36988306
I2
tp3000
I0
s(I33811240
I1
tp3001
I1
s(I31404238
I4
tp3002
I0
s(I11611183
I0
tp3003
I1
s(I12667537
I1
tp3004
I1
s(I24162868
I0
tp3005
I1
s(I3955571
I0
tp3006
I0
s(I19728214
I1
tp3007
I0
s(I31869890
I1
tp3008
I0
s(I35288428
I0
tp3009
I0
s(I30447975
I1
tp3010
I0
s(I25537262
I3
tp3011
I0
s(I21906759
I0
tp3012
I1
s(I29831030
I1
tp3013
I1
s(I9416947
I1
tp3014
I0
s(I33385238
I0
tp3015
I1
s(I2621549
I0
tp3016
I1
s(I28754280
I2
tp3017
I1
s(I37482313
I1
tp3018
I0
s(I35493086
I0
tp3019
I1
s(I15304076
I0
tp3020
I1
s(I17504995
I0
tp3021
I1
s(I10108368
I3
tp3022
I0
s(I26969526
I1
tp3023
I0
s(I22567247
I0
tp3024
I0
s(I28348838
I0
tp3025
I1
s(I15211991
I2
tp3026
I0
s(I8714744
I4
tp3027
I0
s(I33140945
I2
tp3028
I0
s(I36017497
I0
tp3029
I1
s(I6540412
I1
tp3030
I0
s(I21928814
I0
tp3031
I1
s(I11691679
I2
tp3032
I0
s(I5073624
I1
tp3033
I1
s(I2534786
I4
tp3034
I0
s(I22019213
I0
tp3035
I1
s(I34977252
I0
tp3036
I1
s(I17561901
I1
tp3037
I1
s(I17144809
I0
tp3038
I1
s(I12227084
I1
tp3039
I0
s(I1738633
I1
tp3040
I1
s(I19784235
I1
tp3041
I0
s(I28606124
I0
tp3042
I1
s(I15353972
I1
tp3043
I0
s(I34687883
I2
tp3044
I0
s(I11345160
I0
tp3045
I0
s(I12102342
I0
tp3046
I0
s(I26742987
I0
tp3047
I0
s(I27103165
I1
tp3048
I1
s(I29785451
I1
tp3049
I1
s(I4046986
I1
tp3050
I0
s(I18802249
I1
tp3051
I0
s(I20990336
I2
tp3052
I0
s(I324214
I1
tp3053
I1
s(I36193225
I0
tp3054
I1
s(I26487617
I0
tp3055
I1
s(I22119987
I1
tp3056
I1
s(I35011168
I1
tp3057
I1
s(I10961378
I1
tp3058
I0
s(I25883410
I1
tp3059
I0
s(I32256393
I1
tp3060
I0
s(I31162560
I1
tp3061
I1
s(I23699378
I0
tp3062
I0
s(I26498794
I1
tp3063
I1
s(I28257632
I0
tp3064
I1
s(I7950124
I1
tp3065
I1
s(I18802563
I3
tp3066
I0
s(I30229104
I4
tp3067
I1
s(I29114133
I1
tp3068
I0
s(I36835793
I0
tp3069
I0
s(I28076006
I0
tp3070
I1
s(I24465953
I1
tp3071
I0
s(I10920180
I1
tp3072
I0
s(I11269104
I0
tp3073
I0
s(I34600056
I2
tp3074
I0
s(I17598881
I1
tp3075
I0
s(I22048792
I1
tp3076
I0
s(I35952815
I5
tp3077
I0
s(I19209860
I1
tp3078
I0
s(I32896987
I3
tp3079
I0
s(I765305
I0
tp3080
I1
s(I28104377
I1
tp3081
I1
s(I35344237
I1
tp3082
I0
s(I21919877
I0
tp3083
I1
s(I14258317
I1
tp3084
I0
s(I296055
I1
tp3085
I0
s(I33927174
I0
tp3086
I0
s(I20431617
I4
tp3087
I0
s(I31892559
I1
tp3088
I0
s(I22119987
I0
tp3089
I1
s(I37444512
I0
tp3090
I1
s(I3458542
I4
tp3091
I0
s(I21756477
I3
tp3092
I0
s(I24495059
I0
tp3093
I0
s(I22674166
I1
tp3094
I0
s(I11830474
I3
tp3095
I1
s(I3984539
I0
tp3096
I1
s(I21817657
I2
tp3097
I0
s(I7918240
I0
tp3098
I0
s(I35288428
I1
tp3099
I1
s(I8937566
I0
tp3100
I1
s(I26430002
I2
tp3101
I0
s(I30578068
I2
tp3102
I0
s(I33037416
I0
tp3103
I1
s(I18289871
I0
tp3104
I1
s(I19882621
I0
tp3105
I0
s(I23699378
I2
tp3106
I0
s(I16750376
I0
tp3107
I1
s(I187273
I2
tp3108
I0
s(I30180241
I3
tp3109
I0
s(I30242208
I5
tp3110
I0
s(I765305
I1
tp3111
I1
s(I21739450
I0
tp3112
I0
s(I35428388
I2
tp3113
I0
s(I29857558
I1
tp3114
I0
s(I37501075
I1
tp3115
I0
s(I18049531
I0
tp3116
I1
s(I32314712
I2
tp3117
I0
s(I23231840
I1
tp3118
I1
s(I21588963
I1
tp3119
I0
s(I24445991
I0
tp3120
I1
s(I9950474
I0
tp3121
I0
s(I35952815
I2
tp3122
I0
s(I11984684
I2
tp3123
I1
s(I20825173
I6
tp3124
I0
s(I29238534
I0
tp3125
I1
s(I35636806
I0
tp3126
I0
s(I5470210
I1
tp3127
I0
s(I8329204
I0
tp3128
I0
s(I17687453
I2
tp3129
I0
s(I1423251
I0
tp3130
I0
s(I16689117
I2
tp3131
I1
s(I7463941
I1
tp3132
I1
s(I22672340
I0
tp3133
I1
s(I23368164
I1
tp3134
I1
s(I27270532
I0
tp3135
I1
s(I28510518
I0
tp3136
I1
s(I14622698
I4
tp3137
I0
s(I37316698
I1
tp3138
I1
s(I24406677
I1
tp3139
I0
s(I29392606
I2
tp3140
I1
s(I22520948
I1
tp3141
I0
s(I29087010
I1
tp3142
I1
s(I9969684
I0
tp3143
I1
s(I26163563
I0
tp3144
I1
s(I8419817
I2
tp3145
I1
s(I10683659
I1
tp3146
I0
s(I36785204
I0
tp3147
I1
s(I34906231
I1
tp3148
I1
s(I19241166
I3
tp3149
I0
s(I29153930
I0
tp3150
I1
s(I4554767
I0
tp3151
I1
s(I14686212
I0
tp3152
I1
s(I3038661
I2
tp3153
I1
s(I3083583
I1
tp3154
I1
s(I19122988
I2
tp3155
I1
s(I16595299
I1
tp3156
I1
s(I25690354
I3
tp3157
I0
s(I20695432
I2
tp3158
I0
s(I25705612
I2
tp3159
I1
s(I30909414
I1
tp3160
I0
s(I15462548
I1
tp3161
I0
s(I24427828
I0
tp3162
I1
s(I10126668
I5
tp3163
I0
s(I27914360
I3
tp3164
I0
s(I33354950
I2
tp3165
I0
s(I36949277
I2
tp3166
I1
s(I27885989
I0
tp3167
I1
s(I8685308
I0
tp3168
I1
s(I31889359
I1
tp3169
I0
s(I11314980
I1
tp3170
I0
s(I25467360
I2
tp3171
I0
s(I20484918
I2
tp3172
I1
s(I973481
I1
tp3173
I0
s(I22775168
I1
tp3174
I0
s(I28198883
I1
tp3175
I0
s(I35840403
I1
tp3176
I1
s(I33972303
I2
tp3177
I0
s(I37018019
I1
tp3178
I0
s(I34452644
I5
tp3179
I0
s(I31498516
I2
tp3180
I1
s(I21439948
I0
tp3181
I0
s(I33972303
I0
tp3182
I0
s(I16782291
I1
tp3183
I0
s(I9671165
I0
tp3184
I0
s(I19543636
I0
tp3185
I0
s(I12504976
I0
tp3186
I0
s(I14285049
I1
tp3187
I1
s(I33706780
I0
tp3188
I0
s(I16897609
I1
tp3189
I0
s(I21080357
I3
tp3190
I0
s(I27139744
I1
tp3191
I0
s(I19431099
I0
tp3192
I1
s(I3068839
I0
tp3193
I1
s(I15432775
I1
tp3194
I1
s(I14494101
I2
tp3195
I0
s(I24127569
I1
tp3196
I0
s(I35209114
I2
tp3197
I0
s(I31202918
I3
tp3198
I0
s(I7132861
I1
tp3199
I1
s(I37262062
I1
tp3200
I1
s(I11968976
I0
tp3201
I1
s(I34598020
I0
tp3202
I1
s(I24319973
I0
tp3203
I0
s(I19522263
I1
tp3204
I0
s(I27491988
I0
tp3205
I1
s(I35020513
I1
tp3206
I0
s(I35164333
I0
tp3207
I1
s(I13097764
I2
tp3208
I1
s(I14462993
I2
tp3209
I0
s(I37177688
I0
tp3210
I1
s(I15489749
I0
tp3211
I1
s(I10610592
I1
tp3212
I0
s(I10586471
I1
tp3213
I0
s(I25757650
I0
tp3214
I1
s(I10108368
I4
tp3215
I0
s(I30272538
I3
tp3216
I0
s(I31847577
I0
tp3217
I1
s(I2286557
I1
tp3218
I1
s(I22384398
I1
tp3219
I0
s(I3257619
I3
tp3220
I0
s(I14436970
I1
tp3221
I0
s(I24002551
I1
tp3222
I0
s(I35707475
I1
tp3223
I0
s(I29600513
I1
tp3224
I0
s(I22083378
I1
tp3225
I0
s(I6165277
I1
tp3226
I0
s(I20990336
I1
tp3227
I0
s(I35252265
I0
tp3228
I1
s(I26222720
I0
tp3229
I1
s(I32921049
I2
tp3230
I0
s(I582723
I0
tp3231
I0
s(I6798490
I0
tp3232
I0
s(I6493681
I0
tp3233
I1
s(I9504638
I2
tp3234
I1
s(I14017199
I0
tp3235
I1
s(I20339462
I0
tp3236
I1
s(I19799490
I1
tp3237
I1
s(I34818228
I0
tp3238
I1
s(I20316339
I0
tp3239
I1
s(I35847865
I0
tp3240
I1
s(I21833068
I0
tp3241
I1
s(I1389180
I0
tp3242
I1
s(I16233528
I1
tp3243
I0
s(I24084817
I6
tp3244
I1
s(I36779891
I1
tp3245
I0
s(I1042751
I0
tp3246
I1
s(I33019600
I1
tp3247
I1
s(I19179245
I0
tp3248
I1
s(I4416013
I0
tp3249
I0
s(I15708416
I1
tp3250
I1
s(I36242061
I1
tp3251
I0
s(I2743712
I0
tp3252
I0
s(I37682284
I1
tp3253
I1
s(I23317342
I0
tp3254
I1
s(I22535316
I2
tp3255
I1
s(I33869234
I2
tp3256
I1
s(I7471055
I0
tp3257
I1
s(I28002993
I1
tp3258
I0
s(I18540321
I4
tp3259
I1
s(I1598932
I0
tp3260
I1
s(I28467688
I1
tp3261
I1
s(I23961648
I0
tp3262
I1
s(I31193239
I0
tp3263
I1
s(I2237624
I2
tp3264
I0
s(I35293171
I0
tp3265
I0
s(I1606436
I2
tp3266
I0
s(I30528673
I0
tp3267
I1
s(I17270318
I2
tp3268
I0
s(I29114975
I0
tp3269
I1
s(I25217124
I0
tp3270
I1
s(I35119291
I0
tp3271
I1
s(I18340475
I0
tp3272
I1
s(I1175208
I3
tp3273
I0
s(I31078921
I1
tp3274
I0
s(I21871829
I0
tp3275
I0
s(I37348050
I0
tp3276
I1
s(I3947313
I0
tp3277
I1
s(I24191793
I1
tp3278
I1
s(I22576924
I1
tp3279
I0
s(I1885314
I0
tp3280
I1
s(I25057912
I1
tp3281
I0
s(I34959948
I1
tp3282
I1
s(I17077403
I2
tp3283
I0
s(I9950474
I3
tp3284
I0
s(I28461458
I1
tp3285
I1
s(I29263680
I1
tp3286
I0
s(I2363954
I0
tp3287
I0
s(I5999241
I0
tp3288
I1
s(I30068271
I3
tp3289
I1
s(I18016779
I0
tp3290
I0
s(I13612437
I1
tp3291
I1
s(I29998052
I14
tp3292
I0
s(I25641980
I3
tp3293
I0
s(I31419156
I0
tp3294
I1
s(I17471682
I0
tp3295
I1
s(I20082507
I1
tp3296
I1
s(I29761118
I2
tp3297
I0
s(I20249149
I2
tp3298
I0
s(I9091299
I1
tp3299
I0
s(I29527654
I1
tp3300
I0
s(I20023209
I0
tp3301
I1
s(I23837696
I0
tp3302
I1
s(I2588364
I1
tp3303
I0
s(I25435908
I3
tp3304
I0
s(I33042988
I1
tp3305
I0
s(I12573992
I1
tp3306
I0
s(I17921455
I0
tp3307
I0
s(I24084817
I1
tp3308
I0
s(I14154851
I1
tp3309
I0
s(I34082065
I1
tp3310
I0
s(I34672986
I2
tp3311
I1
s(I37444512
I2
tp3312
I0
s(I18589821
I1
tp3313
I1
s(I34930630
I2
tp3314
I1
s(I24495452
I1
tp3315
I0
s(I3065624
I2
tp3316
I0
s(I23388668
I0
tp3317
I1
s(I21857875
I0
tp3318
I1
s(I36364512
I2
tp3319
I1
s(I34914655
I1
tp3320
I0
s(I8470539
I0
tp3321
I0
s(I33431816
I3
tp3322
I0
s(I23669024
I0
tp3323
I1
s(I11239815
I0
tp3324
I1
s(I18474538
I5
tp3325
I0
s(I5629242
I0
tp3326
I1
s(I27724543
I2
tp3327
I1
s(I33928554
I6
tp3328
I0
s(I25469326
I0
tp3329
I0
s(I28907503
I1
tp3330
I0
s(I27419345
I2
tp3331
I1
s(I26700006
I2
tp3332
I0
s(I35431172
I4
tp3333
I1
s(I12494277
I0
tp3334
I1
s(I23923658
I0
tp3335
I0
s(I7835030
I1
tp3336
I0
s(I36798227
I1
tp3337
I0
s(I35481842
I1
tp3338
I0
s(I12081704
I3
tp3339
I0
s(I18580032
I0
tp3340
I1
s(I25728442
I1
tp3341
I0
s(I11382536
I0
tp3342
I1
s(I33270388
I0
tp3343
I1
s(I27216944
I1
tp3344
I1
s(I30793198
I1
tp3345
I0
s(I36579996
I1
tp3346
I0
s(I33371558
I1
tp3347
I0
s(I8892307
I0
tp3348
I0
s(I17013381
I1
tp3349
I0
s(I12014704
I0
tp3350
I0
s(I15425455
I1
tp3351
I0
s(I28387109
I2
tp3352
I1
s(I9364754
I1
tp3353
I0
s(I34141855
I1
tp3354
I1
s(I3576512
I1
tp3355
I0
s(I32678322
I0
tp3356
I1
s(I35890697
I0
tp3357
I1
s(I15620039
I0
tp3358
I1
s(I28795561
I1
tp3359
I0
s(I27356890
I1
tp3360
I1
s(I30414578
I2
tp3361
I0
s(I37482313
I2
tp3362
I0
s(I9761554
I1
tp3363
I0
s(I32026028
I0
tp3364
I1
s(I34014527
I1
tp3365
I1
s(I18540321
I1
tp3366
I0
s(I555344
I1
tp3367
I1
s(I5472771
I0
tp3368
I0
s(I13562613
I4
tp3369
I0
s(I18016779
I1
tp3370
I0
s(I19199869
I2
tp3371
I0
s(I21817657
I1
tp3372
I0
s(I16659818
I1
tp3373
I1
s(I18062466
I2
tp3374
I1
s(I30685363
I0
tp3375
I1
s(I12785573
I1
tp3376
I0
s(I26830752
I3
tp3377
I0
s(I28348485
I2
tp3378
I1
s(I10156909
I2
tp3379
I0
s(I19618514
I0
tp3380
I1
s(I35560606
I1
tp3381
I0
s(I100210
I3
tp3382
I1
s(I35510590
I0
tp3383
I0
s(I19288469
I0
tp3384
I1
s(I27257991
I1
tp3385
I0
s(I35469417
I2
tp3386
I0
s(I13031989
I1
tp3387
I1
s(I13407560
I0
tp3388
I1
s(I4397859
I2
tp3389
I0
s(I30464454
I0
tp3390
I1
s(I29033262
I1
tp3391
I0
s(I14144315
I1
tp3392
I1
s(I28443428
I1
tp3393
I0
s(I34117408
I4
tp3394
I0
s(I1783251
I0
tp3395
I0
s(I35061363
I1
tp3396
I1
s(I16257087
I0
tp3397
I0
s(I22694038
I0
tp3398
I0
s(I5532498
I1
tp3399
I1
s(I33569374
I0
tp3400
I1
s(I27331006
I1
tp3401
I1
s(I34301088
I0
tp3402
I1
s(I36804141
I2
tp3403
I0
s(I32623285
I0
tp3404
I0
s(I7734028
I0
tp3405
I1
s(I28416559
I3
tp3406
I0
s(I36550795
I3
tp3407
I0
s(I22920023
I2
tp3408
I1
s(I23039188
I0
tp3409
I1
s(I26871083
I0
tp3410
I0
s(I29547906
I0
tp3411
I0
s(I35354005
I1
tp3412
I1
s(I13098173
I2
tp3413
I0
s(I37425477
I0
tp3414
I0
s(I18111031
I0
tp3415
I0
s(I23795777
I1
tp3416
I1
s(I29481485
I0
tp3417
I0
s(I16143648
I1
tp3418
I0
s(I21053458
I0
tp3419
I1
s(I31149123
I2
tp3420
I0
s(I18682304
I0
tp3421
I1
s(I3208076
I1
tp3422
I1
s(I33371558
I0
tp3423
I1
s(I22700457
I2
tp3424
I1
s(I25000584
I0
tp3425
I0
s(I23642406
I0
tp3426
I1
s(I28606124
I2
tp3427
I0
s(I12081704
I6
tp3428
I1
s(I30701329
I3
tp3429
I1
s(I24747191
I0
tp3430
I1
s(I10127973
I0
tp3431
I0
s(I23231840
I4
tp3432
I0
s(I26983187
I0
tp3433
I0
s(I22024409
I3
tp3434
I0
s(I30727894
I0
tp3435
I0
s(I10472907
I0
tp3436
I1
s(I28364676
I0
tp3437
I0
s(I11444222
I1
tp3438
I1
s(I32161369
I3
tp3439
I0
s(I37088428
I1
tp3440
I0
s(I19124072
I2
tp3441
I0
s(I24674723
I0
tp3442
I1
s(I12504976
I3
tp3443
I0
s(I35619038
I2
tp3444
I0
s(I35104102
I0
tp3445
I1
s(I18535645
I0
tp3446
I1
s(I12504976
I1
tp3447
I0
s(I508657
I3
tp3448
I1
s(I28404183
I0
tp3449
I1
s(I33010861
I0
tp3450
I1
s(I27960965
I0
tp3451
I1
s(I24747996
I0
tp3452
I0
s(I35720330
I0
tp3453
I0
s(I32792411
I2
tp3454
I0
s(I31124914
I1
tp3455
I1
s(I20789412
I0
tp3456
I1
s(I24915181
I1
tp3457
I0
s(I17486578
I3
tp3458
I0
s(I24458430
I0
tp3459
I0
s(I22042490
I1
tp3460
I0
s(I35805891
I0
tp3461
I1
s(I9761562
I0
tp3462
I1
s(I1295415
I1
tp3463
I0
s(I25932166
I0
tp3464
I1
s(I33613596
I3
tp3465
I0
s(I35631192
I1
tp3466
I0
s(I34478011
I10
tp3467
I0
s(I2305501
I0
tp3468
I0
s(I3788439
I1
tp3469
I0
s(I33402355
I1
tp3470
I1
s(I30701329
I4
tp3471
I1
s(I10963952
I0
tp3472
I1
s(I26983187
I9
tp3473
I0
s(I37079175
I0
tp3474
I0
s(I6943912
I2
tp3475
I0
s(I17163234
I0
tp3476
I0
s(I26889734
I1
tp3477
I0
s(I30397315
I1
tp3478
I0
s(I24195898
I0
tp3479
I1
s(I5873969
I1
tp3480
I0
s(I17507325
I0
tp3481
I1
s(I35159791
I1
tp3482
I1
s(I11519787
I1
tp3483
I1
s(I21329988
I1
tp3484
I0
s(I35619038
I5
tp3485
I0
s(I2726839
I1
tp3486
I1
s(I18507736
I1
tp3487
I0
s(I34837194
I0
tp3488
I1
s(I34371807
I0
tp3489
I1
s(I36935617
I1
tp3490
I0
s(I26265015
I1
tp3491
I0
s(I23100704
I1
tp3492
I1
s(I29761118
I1
tp3493
I0
s(I32935232
I0
tp3494
I1
s(I35318700
I0
tp3495
I1
s(I5914627
I0
tp3496
I1
s(I28596212
I1
tp3497
I0
s(I22668427
I2
tp3498
I0
s(I23833763
I1
tp3499
I0
s(I33519408
I1
tp3500
I1
s(I36971758
I1
tp3501
I0
s(I4787291
I1
tp3502
I1
s(I5808970
I1
tp3503
I0
s(I23147735
I1
tp3504
I1
s(I2082387
I2
tp3505
I1
s(I23614259
I1
tp3506
I0
s(I34478011
I3
tp3507
I0
s(I19391149
I0
tp3508
I1
s(I9504638
I0
tp3509
I1
s(I13103195
I0
tp3510
I1
s(I18817616
I1
tp3511
I0
s(I24144766
I1
tp3512
I1
s(I23248583
I0
tp3513
I0
s(I645864
I2
tp3514
I0
s(I15516876
I0
tp3515
I1
s(I29192826
I0
tp3516
I0
s(I35596269
I3
tp3517
I0
s(I2255177
I3
tp3518
I0
s(I9416934
I0
tp3519
I1
s(I26983187
I14
tp3520
I0
s(I9897007
I1
tp3521
I0
s(I3947654
I3
tp3522
I1
s(I20211031
I0
tp3523
I0
s(I14208280
I1
tp3524
I0
s(I18706785
I0
tp3525
I1
s(I28500718
I2
tp3526
I1
s(I34016799
I0
tp3527
I1
s(I34701261
I0
tp3528
I1
s(I5701962
I2
tp3529
I0
s(I17288571
I0
tp3530
I0
s(I8530203
I1
tp3531
I1
s(I2358890
I1
tp3532
I0
s(I34008175
I2
tp3533
I0
s(I1267314
I0
tp3534
I1
s(I16110307
I1
tp3535
I0
s(I20211031
I1
tp3536
I0
s(I30180241
I1
tp3537
I1
s(I1423251
I2
tp3538
I0
s(I21126108
I1
tp3539
I0
s(I17176270
I0
tp3540
I1
s(I13715594
I1
tp3541
I0
s(I20385957
I1
tp3542
I1
s(I23699378
I4
tp3543
I1
s(I27827982
I2
tp3544
I0
s(I36495903
I1
tp3545
I1
s(I29327493
I0
tp3546
I0
s(I8780912
I6
tp3547
I1
s(I35234823
I0
tp3548
I1
s(I7741455
I2
tp3549
I0
s(I13279399
I1
tp3550
I0
s(I14462993
I0
tp3551
I0
s(I36806340
I4
tp3552
I0
s(I8702772
I1
tp3553
I0
s(I14366713
I0
tp3554
I1
s(I25746147
I0
tp3555
I0
s(I28767484
I1
tp3556
I0
s(I28059257
I1
tp3557
I0
s(I27277381
I0
tp3558
I1
s(I20821815
I1
tp3559
I0
s(I28566041
I2
tp3560
I0
s(I33907941
I1
tp3561
I0
s(I5051795
I1
tp3562
I1
s(I28774852
I1
tp3563
I0
s(I29238534
I1
tp3564
I1
s(I20224501
I5
tp3565
I0
s(I11066400
I1
tp3566
I1
s(I933612
I2
tp3567
I0
s(I20295134
I1
tp3568
I1
s(I32792411
I1
tp3569
I1
s(I33795081
I1
tp3570
I0
s(I18024402
I0
tp3571
I0
s(I10805846
I2
tp3572
I0
s(I8180404
I1
tp3573
I1
s(I23402150
I1
tp3574
I1
s(I9787427
I1
tp3575
I1
s(I28687087
I0
tp3576
I0
s(I28832166
I0
tp3577
I1
s(I30515888
I1
tp3578
I1
s(I9013354
I0
tp3579
I1
s(I35787294
I2
tp3580
I0
s(I32214596
I2
tp3581
I0
s(I17167297
I0
tp3582
I1
s(I14837231
I1
tp3583
I0
s(I13584299
I0
tp3584
I1
s(I24787224
I0
tp3585
I1
s(I9017260
I1
tp3586
I0
s(I27585173
I0
tp3587
I0
s(I32900442
I1
tp3588
I1
s(I29998052
I1
tp3589
I0
s(I1822934
I2
tp3590
I0
s(I26497396
I1
tp3591
I0
s(I508657
I1
tp3592
I1
s(I21015447
I2
tp3593
I0
s(I10870736
I1
tp3594
I1
s(I21959866
I1
tp3595
I0
s(I18085030
I2
tp3596
I0
s(I29571644
I1
tp3597
I0
s(I36806340
I3
tp3598
I0
s(I37042635
I1
tp3599
I0
s(I25345843
I0
tp3600
I0
s(I37760124
I1
tp3601
I0
s(I31137183
I0
tp3602
I1
s(I5332701
I5
tp3603
I1
s(I34251684
I0
tp3604
I1
s(I897362
I0
tp3605
I1
s(I20593215
I5
tp3606
I0
s(I33587404
I1
tp3607
I1
s(I11185516
I0
tp3608
I1
s(I9465236
I1
tp3609
I0
s(I25726345
I0
tp3610
I1
s(I30071618
I1
tp3611
I1
s(I20224501
I3
tp3612
I0
s(I2382905
I0
tp3613
I1
s(I32077660
I1
tp3614
I1
s(I6235146
I1
tp3615
I0
s(I20672238
I3
tp3616
I0
s(I22856566
I1
tp3617
I1
s(I33607716
I1
tp3618
I0
s(I31630753
I1
tp3619
I0
s(I24642669
I0
tp3620
I1
s(I11078122
I2
tp3621
I0
s(I16391808
I1
tp3622
I0
s(I10099326
I2
tp3623
I0
s(I19894715
I1
tp3624
I0
s(I32262334
I1
tp3625
I1
s(I25744399
I2
tp3626
I1
s(I18802563
I1
tp3627
I0
s(I34428730
I0
tp3628
I1
s(I30338961
I0
tp3629
I0
s(I36066726
I0
tp3630
I1
s(I35205400
I1
tp3631
I0
s(I37018019
I0
tp3632
I1
s(I30214489
I0
tp3633
I0
s(I29643161
I2
tp3634
I0
s(I2192658
I0
tp3635
I1
s(I24465953
I0
tp3636
I0
s(I5276837
I3
tp3637
I0
s(I21212484
I1
tp3638
I0
s(I14258317
I0
tp3639
I0
s(I19241166
I0
tp3640
I0
s(I20622240
I1
tp3641
I0
s(I4534486
I3
tp3642
I0
s(I6316726
I2
tp3643
I0
s(I34505283
I1
tp3644
I1
s(I187273
I1
tp3645
I0
s(I35432378
I1
tp3646
I0
s(I21736784
I4
tp3647
I0
s(I28855043
I0
tp3648
I1
s(I13097764
I0
tp3649
I1
s(I26321557
I2
tp3650
I1
s(I14812510
I1
tp3651
I0
s(I5478351
I1
tp3652
I0
s(I22404273
I0
tp3653
I1
s(I31011179
I1
tp3654
I0
s(I17176270
I1
tp3655
I0
s(I36921573
I0
tp3656
I0
s(I36479374
I0
tp3657
I1
s(I17659626
I0
tp3658
I1
s(I23025497
I3
tp3659
I0
s(I21080357
I2
tp3660
I0
s(I27857842
I0
tp3661
I0
s(I15795416
I0
tp3662
I0
s(I9542738
I3
tp3663
I1
s(I3145246
I0
tp3664
I1
s(I31869890
I0
tp3665
I1
s(I17260358
I1
tp3666
I0
s(I28072914
I2
tp3667
I0
s(I27665039
I0
tp3668
I1
s(I7274521
I0
tp3669
I1
s(I2148119
I2
tp3670
I0
s(I11939631
I1
tp3671
I1
s(I6566642
I0
tp3672
I1
s(I17972025
I1
tp3673
I0
s(I5930036
I0
tp3674
I1
s(I28823170
I2
tp3675
I1
s(I10881852
I1
tp3676
I0
s(I36436065
I0
tp3677
I1
s(I36226959
I1
tp3678
I1
s(I32902648
I2
tp3679
I0
s(I24900064
I1
tp3680
I1
s(I37365033
I0
tp3681
I1
s(I32670153
I1
tp3682
I1
s(I2192658
I2
tp3683
I0
s(I33296707
I0
tp3684
I1
s(I36967883
I2
tp3685
I0
s(I22134243
I1
tp3686
I1
s(I15425455
I0
tp3687
I1
s(I29258758
I0
tp3688
I1
s(I28267563
I3
tp3689
I0
s(I30214489
I2
tp3690
I0
s(I26187054
I1
tp3691
I0
s(I29318963
I0
tp3692
I1
s(I30209723
I1
tp3693
I0
s(I31009455
I0
tp3694
I1
s(I35431172
I2
tp3695
I1
s(I11159668
I0
tp3696
I0
s(I18921302
I1
tp3697
I0
s(I28486144
I1
tp3698
I1
s(I31390194
I0
tp3699
I0
s(I36988306
I3
tp3700
I0
s(I2716894
I2
tp3701
I0
s(I5222333
I1
tp3702
I0
s(I25068218
I0
tp3703
I1
s(I24327683
I1
tp3704
I1
s(I24638781
I1
tp3705
I0
s(I35489107
I2
tp3706
I0
s(I17163234
I1
tp3707
I0
s(I19330415
I1
tp3708
I0
s(I5901653
I0
tp3709
I0
s(I13471083
I1
tp3710
I0
s(I14692029
I2
tp3711
I1
s(I25537262
I0
tp3712
I0
s(I23008799
I2
tp3713
I0
s(I9416947
I0
tp3714
I1
s(I23677258
I0
tp3715
I0
s(I33385238
I1
tp3716
I1
s(I30242208
I8
tp3717
I0
s(I1267314
I1
tp3718
I1
s(I10921316
I0
tp3719
I0
s(I7154171
I0
tp3720
I1
s(I35493086
I1
tp3721
I0
s(I26453595
I1
tp3722
I1
s(I15304076
I1
tp3723
I0
s(I25104929
I1
tp3724
I0
s(I3986345
I2
tp3725
I0
s(I34824864
I0
tp3726
I1
s(I28348838
I1
tp3727
I1
s(I18938302
I2
tp3728
I0
s(I14837231
I0
tp3729
I1
s(I33140945
I1
tp3730
I0
s(I8431654
I0
tp3731
I1
s(I5198116
I2
tp3732
I0
s(I37760124
I2
tp3733
I0
s(I21928814
I1
tp3734
I0
s(I32262334
I0
tp3735
I1
s(I20470749
I2
tp3736
I1
s(I17559933
I0
tp3737
I0
s(I32308382
I4
tp3738
I0
s(I22897195
I1
tp3739
I1
s(I29932225
I0
tp3740
I1
s(I27781555
I1
tp3741
I0
s(I34977252
I1
tp3742
I0
s(I30992225
I1
tp3743
I0
s(I17561901
I0
tp3744
I0
s(I29950856
I2
tp3745
I0
s(I12501761
I2
tp3746
I1
s(I1781554
I0
tp3747
I1
s(I1738633
I0
tp3748
I1
s(I296499
I1
tp3749
I0
s(I28606124
I1
tp3750
I0
s(I7681301
I0
tp3751
I1
s(I12184015
I2
tp3752
I0
s(I36950503
I1
tp3753
I0
s(I11345160
I1
tp3754
I0
s(I31919765
I1
tp3755
I1
s(I28267563
I2
tp3756
I0
s(I20634691
I1
tp3757
I1
s(I5222333
I0
tp3758
I1
s(I29785451
I0
tp3759
I1
s(I16402525
I1
tp3760
I0
s(I168409
I1
tp3761
I0
s(I25838448
I0
tp3762
I1
s(I14972601
I1
tp3763
I1
s(I20062684
I0
tp3764
I1
s(I296499
I0
tp3765
I1
s(I10829302
I0
tp3766
I0
s(I23699378
I1
tp3767
I0
s(I4791080
I5
tp3768
I0
s(I28257632
I1
tp3769
I1
s(I18802563
I2
tp3770
I0
s(I23555995
I1
tp3771
I0
s(I29114133
I0
tp3772
I1
s(I1938894
I2
tp3773
I0
s(I28076006
I1
tp3774
I0
s(I20825173
I2
tp3775
I0
s(I1480655
I1
tp3776
I1
s(I11269104
I1
tp3777
I0
s(I14720912
I0
tp3778
I1
s(I8405977
I1
tp3779
I0
s(I19274492
I0
tp3780
I0
s(I35952815
I4
tp3781
I0
s(I32896987
I2
tp3782
I0
s(I20622240
I3
tp3783
I0
s(I34556645
I2
tp3784
I1
s(I19936790
I0
tp3785
I1
s(I35344237
I0
tp3786
I0
s(I36408096
I0
tp3787
I1
s(I3862310
I4
tp3788
I1
s(I31912253
I0
tp3789
I0
s(I2454494
I0
tp3790
I0
s(I12713743
I2
tp3791
I0
s(I26683175
I1
tp3792
I0
s(I33927174
I1
tp3793
I0
s(I31892559
I0
tp3794
I0
s(I10108070
I0
tp3795
I1
s(I870652
I0
tp3796
I1
s(I34982928
I1
tp3797
I0
s(I29481485
I1
tp3798
I0
s(I21756477
I2
tp3799
I0
s(I36241474
I2
tp3800
I0
s(I34637002
I0
tp3801
I1
s(I30602088
I2
tp3802
I0
s(I16876342
I0
tp3803
I0
s(I33288420
I0
tp3804
I1
s(I8937566
I1
tp3805
I1
s(I34244726
I2
tp3806
I0
s(I22484903
I0
tp3807
I1
s(I37399461
I0
tp3808
I1
s(I30578068
I3
tp3809
I0
s(I17462994
I2
tp3810
I1
s(I18972212
I2
tp3811
I1
s(I8948166
I0
tp3812
I1
s(I2964751
I1
tp3813
I1
s(I28647371
I0
tp3814
I0
s(I30242208
I6
tp3815
I0
s(I10645986
I0
tp3816
I1
s(I29935056
I0
tp3817
I1
s(I31393692
I1
tp3818
I0
s(I31619128
I0
tp3819
I1
s(I35428388
I3
tp3820
I0
s(I37501075
I0
tp3821
I1
s(I19835824
I1
tp3822
I0
s(I11832984
I0
tp3823
I1
s(I24145957
I2
tp3824
I1
s(I2716894
I0
tp3825
I0
s(I28255693
I2
tp3826
I0
s(I18474538
I2
tp3827
I0
s(I26830752
I1
tp3828
I0
s(I12059634
I2
tp3829
I0
s(I5198116
I1
tp3830
I0
s(I35636806
I1
tp3831
I0
s(I5530857
I3
tp3832
I0
s(I35373082
I3
tp3833
I0
s(I34777323
I0
tp3834
I1
s(I16689117
I1
tp3835
I1
s(I15688462
I1
tp3836
I1
s(I23613138
I1
tp3837
I0
s(I7463941
I0
tp3838
I1
s(I32379895
I1
tp3839
I0
s(I24243929
I2
tp3840
I0
s(I23368164
I2
tp3841
I0
s(I8329204
I1
tp3842
I0
s(I19045971
I1
tp3843
I1
s(I27270532
I1
tp3844
I1
s(I30443894
I0
tp3845
I1
s(I34906286
I0
tp3846
I0
s(I2743712
I4
tp3847
I0
s(I11102829
I1
tp3848
I1
s(I14622698
I5
tp3849
I0
s(I11388032
I0
tp3850
I0
s(I27031053
I2
tp3851
I1
s(I27159189
I0
tp3852
I1
s(I19543636
I1
tp3853
I0
s(I9969684
I1
tp3854
I1
s(I3843017
I0
tp3855
I1
s(I31502786
I1
tp3856
I1
s(I12329807
I1
tp3857
I0
s(I10683659
I0
tp3858
I1
s(I19431099
I1
tp3859
I0
s(I34906231
I0
tp3860
I1
s(I23732057
I1
tp3861
I0
s(I29153930
I1
tp3862
I1
s(I13276796
I0
tp3863
I1
s(I3038661
I1
tp3864
I0
s(I3083583
I0
tp3865
I1
s(I8671702
I1
tp3866
I0
s(I25690354
I0
tp3867
I0
s(I25541651
I0
tp3868
I1
s(I20063721
I1
tp3869
I0
s(I30909414
I6
tp3870
I0
s(I29998052
I18
tp3871
I0
s(I27747712
I1
tp3872
I0
s(I10126668
I6
tp3873
I0
s(I5722767
I2
tp3874
I0
s(I27914360
I4
tp3875
I0
s(I36949277
I1
tp3876
I0
s(I8685308
I1
tp3877
I0
s(I22394350
I0
tp3878
I1
s(I34569966
I4
tp3879
I1
s(I35611992
I1
tp3880
I0
s(I14536778
I0
tp3881
I1
s(I25467360
I3
tp3882
I0
s(I35668472
I0
tp3883
I1
s(I22775168
I2
tp3884
I0
s(I10099326
I3
tp3885
I0
s(I5761617
I5
tp3886
I0
s(I22953550
I2
tp3887
I0
s(I26934349
I2
tp3888
I1
s(I35526501
I0
tp3889
I1
s(I23648826
I1
tp3890
I0
s(I30904903
I3
tp3891
I0
s(I973481
I2
tp3892
I0
s(I17778394
I0
tp3893
I1
s(I11207302
I1
tp3894
I0
s(I23047215
I0
tp3895
I1
s(I23047215
I1
tp3896
I0
s(I18919032
I1
tp3897
I0
s(I14285049
I0
tp3898
I1
s(I35485675
I1
tp3899
I0
s(I33706780
I1
tp3900
I1
s(I35220031
I2
tp3901
I0
s(I27139744
I2
tp3902
I0
s(I17910014
I1
tp3903
I1
s(I26812595
I1
tp3904
I1
s(I15432775
I0
tp3905
I1
s(I11040604
I0
tp3906
I1
s(I14494101
I1
tp3907
I1
s(I24127569
I0
tp3908
I0
s(I6727491
I1
tp3909
I1
s(I31202918
I0
tp3910
I0
s(I7132861
I0
tp3911
I1
s(I24896943
I1
tp3912
I0
s(I20062672
I1
tp3913
I1
s(I8470539
I1
tp3914
I0
s(I19522263
I0
tp3915
I1
s(I33759539
I0
tp3916
I0
s(I33553826
I3
tp3917
I1
s(I35020513
I0
tp3918
I1
s(I8072755
I1
tp3919
I0
s(I18540321
I2
tp3920
I0
s(I20846235
I1
tp3921
I0
s(I10586471
I0
tp3922
I0
s(I34686485
I0
tp3923
I1
s(I35083540
I1
tp3924
I0
s(I33105265
I0
tp3925
I1
s(I1606436
I4
tp3926
I0
s(I31392017
I1
tp3927
I0
s(I4867037
I0
tp3928
I0
s(I29195983
I1
tp3929
I1
s(I3257619
I2
tp3930
I0
s(I18340475
I1
tp3931
I1
s(I24002551
I0
tp3932
I1
s(I26911426
I1
tp3933
I1
s(I35707475
I0
tp3934
I1
s(I29600513
I0
tp3935
I1
s(I27054358
I0
tp3936
I1
s(I34206921
I0
tp3937
I1
s(I582723
I3
tp3938
I0
s(I6798490
I1
tp3939
I0
s(I28364676
I1
tp3940
I0
s(I18040702
I3
tp3941
I1
s(I1960516
I1
tp3942
I0
s(I20339462
I1
tp3943
I1
s(I34959948
I0
tp3944
I1
s(I34818228
I1
tp3945
I1
s(I10741346
I1
tp3946
I0
s(I25923521
I1
tp3947
I0
s(I8072755
I2
tp3948
I0
s(I16070219
I1
tp3949
I0
s(I1389180
I1
tp3950
I1
s(I16233528
I2
tp3951
I0
s(I36779891
I0
tp3952
I1
s(I14601544
I6
tp3953
I0
s(I8605189
I2
tp3954
I0
s(I36242061
I0
tp3955
I1
s(I29998052
I0
tp3956
I1
s(I2743712
I1
tp3957
I0
s(I23317342
I1
tp3958
I0
s(I24406677
I0
tp3959
I0
s(I20147593
I1
tp3960
I0
s(I21310549
I0
tp3961
I0
s(I22534983
I1
tp3962
I0
s(I15905215
I1
tp3963
I0
s(I28002993
I0
tp3964
I1
s(I20249149
I3
tp3965
I0
s(I1598932
I1
tp3966
I1
s(I12573992
I3
tp3967
I0
s(I29527654
I0
tp3968
I0
s(I22741040
I1
tp3969
I0
s(I2575672
I1
tp3970
I1
s(I36579996
I4
tp3971
I0
s(I7933596
I1
tp3972
I1
s(I35293171
I3
tp3973
I0
s(I10040037
I0
tp3974
I0
s(I25435908
I2
tp3975
I0
s(I32902648
I1
tp3976
I0
s(I17921455
I1
tp3977
I0
s(I25217124
I1
tp3978
I1
s(I28755798
I0
tp3979
I1
s(I23626026
I2
tp3980
I0
s(I16021184
I1
tp3981
I0
s(I11968976
I1
tp3982
I0
s(I17065086
I1
tp3983
I0
s(I18049531
I1
tp3984
I0
s(I32424555
I4
tp3985
I0
s(I30068271
I2
tp3986
I0
s(I31739074
I0
tp3987
I1
s(I30559807
I0
tp3988
I1
s(I24518769
I1
tp3989
I0
s(I34146928
I0
tp3990
I1
s(I7302316
I0
tp3991
I1
s(I9849828
I0
tp3992
I1
s(I36923865
I2
tp3993
I0
s(I37399461
I1
tp3994
I0
s(I3708418
I1
tp3995
I1
s(I19964345
I1
tp3996
I0
s(I30507442
I0
tp3997
I0
s(I13612437
I0
tp3998
I0
s(I17478779
I0
tp3999
I1
s(I24787224
I6
tp4000
I0
s(I7786737
I0
tp4001
I0
s(I21941657
I0
tp4002
I1
s(I31419156
I1
tp4003
I0
s(I21219262
I1
tp4004
I1
s(I17471682
I1
tp4005
I0
s(I31193012
I0
tp4006
I0
s(I23460155
I1
tp4007
I0
s(I35913509
I0
tp4008
I0
s(I37659598
I0
tp4009
I0
s(I30242208
I7
tp4010
I0
s(I32652039
I0
tp4011
I1
s(I19122988
I0
tp4012
I1
s(I17478779
I1
tp4013
I1
s(I5103329
I0
tp4014
I1
s(I35199556
I0
tp4015
I1
s(I25923521
I2
tp4016
I0
s(I28716265
I1
tp4017
I0
s(I14154851
I0
tp4018
I1
s(I36170581
I1
tp4019
I0
s(I34082065
I0
tp4020
I1
s(I15089310
I2
tp4021
I0
s(I34672986
I3
tp4022
I0
s(I7508774
I0
tp4023
I1
s(I20215266
I1
tp4024
I0
s(I18114415
I1
tp4025
I1
s(I26499216
I0
tp4026
I1
s(I3065624
I3
tp4027
I1
s(I11576779
I1
tp4028
I0
s(I23388668
I1
tp4029
I1
s(I2082387
I3
tp4030
I0
s(I25493559
I1
tp4031
I0
s(I27605834
I0
tp4032
I1
s(I36364512
I3
tp4033
I0
s(I12496531
I1
tp4034
I1
s(I25068002
I2
tp4035
I0
s(I36928577
I1
tp4036
I0
s(I29415538
I1
tp4037
I0
s(I23669024
I1
tp4038
I1
s(I21857875
I1
tp4039
I1
s(I5472771
I1
tp4040
I0
s(I13669642
I0
tp4041
I0
s(I5629242
I1
tp4042
I1
s(I32346156
I0
tp4043
I1
s(I33928554
I7
tp4044
I0
s(I18972212
I1
tp4045
I0
s(I11255432
I0
tp4046
I0
s(I28907503
I0
tp4047
I1
s(I3102098
I4
tp4048
I0
s(I22953550
I3
tp4049
I0
s(I2305501
I2
tp4050
I0
s(I23923658
I1
tp4051
I0
s(I8019287
I1
tp4052
I0
s(I3738269
I2
tp4053
I0
s(I30447975
I0
tp4054
I0
s(I25047254
I2
tp4055
I0
s(I36928577
I0
tp4056
I1
s(I12081704
I4
tp4057
I0
s(I31029467
I0
tp4058
I1
s(I36344619
I0
tp4059
I1
s(I1123337
I1
tp4060
I0
s(I18217858
I0
tp4061
I1
s(I11140628
I1
tp4062
I0
s(I7741455
I0
tp4063
I0
s(I22024409
I0
tp4064
I1
s(I36579996
I2
tp4065
I0
s(I27327513
I0
tp4066
I0
s(I19368715
I1
tp4067
I1
s(I17013381
I0
tp4068
I1
s(I30272538
I0
tp4069
I1
s(I4046986
I0
tp4070
I1
s(I28416559
I5
tp4071
I0
s(I34141855
I0
tp4072
I0
s(I5825921
I1
tp4073
I1
s(I2785714
I1
tp4074
I1
s(I36799190
I0
tp4075
I1
s(I24772845
I1
tp4076
I0
s(I28795561
I0
tp4077
I0
s(I34168264
I0
tp4078
I1
s(I20990336
I0
tp4079
I0
s(I2939050
I1
tp4080
I0
s(I12151674
I1
tp4081
I0
s(I18111031
I1
tp4082
I0
s(I28072914
I4
tp4083
I0
s(I4201562
I2
tp4084
I0
s(I19199869
I1
tp4085
I0
s(I18062466
I3
tp4086
I1
s(I32921049
I1
tp4087
I0
s(I12785573
I0
tp4088
I0
s(I25690354
I8
tp4089
I0
s(I35489107
I0
tp4090
I1
s(I28348485
I1
tp4091
I0
s(I35781083
I2
tp4092
I1
s(I19618514
I1
tp4093
I0
s(I23718340
I0
tp4094
I0
s(I100210
I0
tp4095
I1
s(I35510590
I1
tp4096
I0
s(I20959022
I2
tp4097
I0
s(I27257991
I0
tp4098
I1
s(I35469417
I1
tp4099
I1
s(I13031989
I0
tp4100
I1
s(I36459148
I0
tp4101
I0
s(I21588963
I0
tp4102
I0
s(I9394051
I1
tp4103
I1
s(I28255693
I1
tp4104
I0
s(I30801180
I0
tp4105
I1
s(I17687453
I1
tp4106
I0
s(I21377990
I2
tp4107
I1
s(I34117408
I5
tp4108
I1
s(I1783251
I3
tp4109
I0
s(I27007260
I0
tp4110
I1
s(I9575384
I1
tp4111
I0
s(I18157559
I0
tp4112
I1
s(I7586936
I0
tp4113
I1
s(I28812868
I1
tp4114
I1
s(I27419345
I0
tp4115
I0
s(I19369025
I1
tp4116
I0
s(I34301088
I1
tp4117
I0
s(I34382144
I0
tp4118
I0
s(I7734028
I1
tp4119
I1
s(I23576318
I0
tp4120
I1
s(I28416559
I2
tp4121
I0
s(I33010861
I1
tp4122
I1
s(I36550795
I2
tp4123
I0
s(I682504
I0
tp4124
I1
s(I23039188
I1
tp4125
I1
s(I26871083
I3
tp4126
I0
s(I26450673
I2
tp4127
I0
s(I33203746
I0
tp4128
I1
s(I34300499
I2
tp4129
I0
s(I21091802
I1
tp4130
I0
s(I26826838
I0
tp4131
I1
s(I2857634
I1
tp4132
I0
s(I24084817
I3
tp4133
I0
s(I10741346
I2
tp4134
I0
s(I23795777
I0
tp4135
I0
s(I19844558
I2
tp4136
I1
s(I26694500
I1
tp4137
I0
s(I16143648
I2
tp4138
I0
s(I21053458
I1
tp4139
I1
s(I5447428
I0
tp4140
I0
s(I18682304
I1
tp4141
I1
s(I36794619
I1
tp4142
I0
s(I22700457
I1
tp4143
I1
s(I8916209
I0
tp4144
I1
s(I4981815
I0
tp4145
I1
s(I25000584
I1
tp4146
I0
s(I24833045
I1
tp4147
I0
s(I27743031
I3
tp4148
I0
s(I30701329
I2
tp4149
I1
s(I34073053
I1
tp4150
I0
s(I23231840
I5
tp4151
I0
s(I26983187
I3
tp4152
I0
s(I22024409
I2
tp4153
I1
s(I21211756
I0
tp4154
I1
s(I36806340
I0
tp4155
I1
s(I36495903
I0
tp4156
I1
s(I14720912
I5
tp4157
I0
s(I15312953
I1
tp4158
I1
s(I29058643
I0
tp4159
I1
s(I24055067
I1
tp4160
I1
s(I36783166
I0
tp4161
I0
s(I4416013
I1
tp4162
I0
s(I35619038
I3
tp4163
I0
s(I10303797
I1
tp4164
I0
s(I35104102
I1
tp4165
I1
s(I19031953
I1
tp4166
I0
s(I33578676
I0
tp4167
I1
s(I28404183
I3
tp4168
I1
s(I32458370
I4
tp4169
I0
s(I23100704
I0
tp4170
I1
s(I24747996
I1
tp4171
I0
s(I35720330
I1
tp4172
I0
s(I27855146
I0
tp4173
I1
s(I35373082
I2
tp4174
I0
s(I20789412
I1
tp4175
I0
s(I24915181
I0
tp4176
I1
s(I2358890
I2
tp4177
I0
s(I17486578
I0
tp4178
I0
s(I24458430
I1
tp4179
I0
s(I31367608
I0
tp4180
I1
s(I9761562
I1
tp4181
I1
s(I28823052
I0
tp4182
I0
s(I33103802
I0
tp4183
I0
s(I25932166
I1
tp4184
I0
s(I22893271
I0
tp4185
I1
s(I35596269
I0
tp4186
I1
s(I4702518
I1
tp4187
I1
s(I18443220
I0
tp4188
I1
s(I168409
I0
tp4189
I1
s(I31456902
I2
tp4190
I0
s(I3788439
I0
tp4191
I0
s(I2777188
I0
tp4192
I0
s(I33402355
I0
tp4193
I1
s(I24697061
I1
tp4194
I0
s(I35596269
I4
tp4195
I0
s(I35633421
I0
tp4196
I1
s(I10255972
I0
tp4197
I0
s(I18608160
I1
tp4198
I0
s(I37079175
I3
tp4199
I0
s(I30507442
I1
tp4200
I0
s(I33144460
I1
tp4201
I0
s(I32174535
I1
tp4202
I1
s(I21343401
I2
tp4203
I1
s(I17065977
I1
tp4204
I1
s(I35159791
I0
tp4205
I1
s(I17086278
I0
tp4206
I1
s(I15456166
I0
tp4207
I1
s(I19928482
I0
tp4208
I1
s(I23429968
I0
tp4209
I1
s(I2726839
I0
tp4210
I1
s(I10920180
I0
tp4211
I1
s(I34837194
I1
tp4212
I0
s(I17559933
I3
tp4213
I0
s(I32458370
I5
tp4214
I0
s(I31393692
I0
tp4215
I0
s(I15418751
I0
tp4216
I1
s(I32935232
I1
tp4217
I1
s(I18673420
I2
tp4218
I0
s(I15418751
I2
tp4219
I0
s(I23587296
I0
tp4220
I1
s(I13953964
I1
tp4221
I0
s(I32480553
I1
tp4222
I0
s(I22668427
I5
tp4223
I0
s(I23833763
I0
tp4224
I1
s(I10001301
I1
tp4225
I1
s(I24084817
I0
tp4226
I0
s(I33519408
I2
tp4227
I1
s(I7927670
I2
tp4228
I0
s(I7172290
I0
tp4229
I0
s(I8780912
I0
tp4230
I0
s(I23147735
I0
tp4231
I1
s(I28208430
I0
tp4232
I1
s(I32946908
I0
tp4233
I0
s(I23614259
I0
tp4234
I1
s(I5198116
I0
tp4235
I0
s(I34478011
I2
tp4236
I0
s(I2882308
I1
tp4237
I0
s(I28658817
I1
tp4238
I0
s(I6852394
I0
tp4239
I1
s(I35526501
I3
tp4240
I1
s(I645864
I3
tp4241
I0
s(I25286811
I1
tp4242
I0
s(I572263
I0
tp4243
I0
s(I4339273
I1
tp4244
I1
s(I29192826
I1
tp4245
I0
s(I36558005
I1
tp4246
I0
s(I9416934
I1
tp4247
I1
s(I9897007
I0
tp4248
I1
s(I3947654
I0
tp4249
I1
s(I16367823
I1
tp4250
I0
s(I19830594
I0
tp4251
I1
s(I933612
I4
tp4252
I0
s(I7274521
I1
tp4253
I0
s(I28246655
I2
tp4254
I0
s(I14211597
I0
tp4255
I1
s(I15148202
I0
tp4256
I1
s(I8180404
I0
tp4257
I0
s(I16965782
I0
tp4258
I1
s(I27733482
I2
tp4259
I0
s(I8530203
I0
tp4260
I1
s(I28868384
I0
tp4261
I1
s(I13416327
I0
tp4262
I1
s(I23555829
I0
tp4263
I0
s(I20414562
I0
tp4264
I1
s(I16110307
I0
tp4265
I1
s(I11140628
I2
tp4266
I0
s(I30180241
I0
tp4267
I1
s(I4631601
I1
tp4268
I1
s(I11668603
I6
tp4269
I0
s(I16123732
I0
tp4270
I0
s(I33223682
I0
tp4271
I1
s(I3738269
I1
tp4272
I0
s(I31649843
I2
tp4273
I0
s(I33595664
I0
tp4274
I1
s(I14686212
I3
tp4275
I0
s(I27585173
I1
tp4276
I0
s(I27827982
I3
tp4277
I0
s(I37758227
I1
tp4278
I0
s(I8780912
I7
tp4279
I0
s(I21310549
I1
tp4280
I0
s(I21015447
I4
tp4281
I0
s(I1060193
I2
tp4282
I0
s(I19925056
I0
tp4283
I0
s(I13279399
I0
tp4284
I0
s(I29514238
I0
tp4285
I1
s(I15462548
I0
tp4286
I0
s(I4416013
I4
tp4287
I0
s(I4797704
I0
tp4288
I0
s(I1885314
I1
tp4289
I0
s(I27419345
I1
tp4290
I1
s(I28767484
I2
tp4291
I1
s(I28059257
I0
tp4292
I0
s(I20821815
I0
tp4293
I1
s(I28566041
I1
tp4294
I0
s(I11691679
I3
tp4295
I0
s(I5051795
I0
tp4296
I1
s(I29327493
I1
tp4297
I0
s(I11207302
I0
tp4298
I1
s(I15793715
I1
tp4299
I0
s(I29356022
I1
tp4300
I0
s(I933612
I3
tp4301
I0
s(I21175455
I1
tp4302
I0
s(I32792411
I0
tp4303
I0
s(I33795081
I0
tp4304
I0
s(I19534230
I2
tp4305
I0
s(I20445672
I2
tp4306
I1
s(I34244726
I4
tp4307
I0
s(I9787427
I0
tp4308
I1
s(I10108368
I8
tp4309
I1
s(I19835824
I0
tp4310
I1
s(I31137766
I0
tp4311
I0
s(I28486550
I0
tp4312
I1
s(I21892080
I0
tp4313
I0
s(I4201562
I0
tp4314
I0
s(I23206062
I0
tp4315
I0
s(I21507319
I1
tp4316
I1
s(I27551521
I1
tp4317
I1
s(I20778951
I1
tp4318
I1
s(I30156357
I2
tp4319
I0
s(I10263217
I0
tp4320
I0
s(I28199359
I1
tp4321
I0
s(I34715227
I1
tp4322
I0
s(I37256540
I0
tp4323
I1
s(I17365289
I0
tp4324
I1
s(I18086307
I1
tp4325
I0
s(I14421133
I1
tp4326
I1
s(I11816741
I1
tp4327
I0
s(I508657
I0
tp4328
I1
s(I16107526
I0
tp4329
I1
s(I28823170
I0
tp4330
I1
s(I18085030
I3
tp4331
I0
s(I30740326
I0
tp4332
I0
s(I34970283
I1
tp4333
I1
s(I1938894
I0
tp4334
I0
s(I29497029
I1
tp4335
I0
s(I5332701
I4
tp4336
I1
s(I1933784
I0
tp4337
I1
s(I8422308
I1
tp4338
I0
s(I30209723
I2
tp4339
I1
s(I897362
I1
tp4340
I0
s(I14812510
I0
tp4341
I1
s(I32910848
I1
tp4342
I0
s(I15635341
I1
tp4343
I0
s(I32344022
I2
tp4344
I1
s(I11185516
I1
tp4345
I0
s(I18286362
I1
tp4346
I0
s(I30795450
I0
tp4347
I1
s(I18325280
I0
tp4348
I1
s(I20224501
I2
tp4349
I0
s(I30475558
I0
tp4350
I1
s(I7886024
I1
tp4351
I1
s(I27857842
I6
tp4352
I0
s(I20672238
I0
tp4353
I0
s(I36364188
I0
tp4354
I1
s(I33607716
I2
tp4355
I0
s(I31630753
I0
tp4356
I1
s(I37212307
I1
tp4357
I0
s(I16391808
I2
tp4358
I0
s(I17250660
I0
tp4359
I1
s(I19894715
I0
tp4360
I1
s(I9406400
I0
tp4361
I1
s(I37116967
I0
tp4362
I0
s(I1606436
I3
tp4363
I0
s(I11390421
I0
tp4364
I0
s(I32471239
I1
tp4365
I0
s(I12389570
I0
tp4366
I1
s(I12184015
I0
tp4367
I1
s(I36066726
I1
tp4368
I0
s(I11040604
I2
tp4369
I0
s(I21343401
I0
tp4370
I1
s(I26629789
I0
tp4371
I1
s(I37048689
I2
tp4372
I0
s(I12309693
I2
tp4373
I0
s(I29643161
I1
tp4374
I0
s(I9706041
I2
tp4375
I1
s(I21212484
I2
tp4376
I0
s(I23271192
I0
tp4377
I1
s(I35734026
I3
tp4378
I0
s(I4416013
I3
tp4379
I0
s(I34193415
I2
tp4380
I0
s(I14363016
I2
tp4381
I0
s(I24084817
I2
tp4382
I0
s(I30365563
I1
tp4383
I1
s(I8249165
I0
tp4384
I1
s(I29799542
I1
tp4385
I0
s(I26321557
I1
tp4386
I1
s(I32231491
I1
tp4387
I1
s(I28800634
I0
tp4388
I1
s(I21515554
I1
tp4389
I0
s(I18921302
I0
tp4390
I1
s(I31011179
I0
tp4391
I1
s(I27676866
I0
tp4392
I1
s(I17243403
I1
tp4393
I0
s(I31349898
I1
tp4394
I0
s(I17659626
I1
tp4395
I0
s(I23025497
I2
tp4396
I1
s(I27103165
I2
tp4397
I1
s(I31394463
I1
tp4398
I1
s(I27857842
I1
tp4399
I0
s(I12824228
I0
tp4400
I0
s(I9542738
I0
tp4401
I1
s(I3145246
I1
tp4402
I0
s(I34079643
I1
tp4403
I0
s(I34521703
I0
tp4404
I1
s(I11939631
I0
tp4405
I1
s(I31078921
I0
tp4406
I1
s(I17972025
I0
tp4407
I1
s(I22328160
I0
tp4408
I1
s(I29870041
I1
tp4409
I0
s(I2882308
I0
tp4410
I0
s(I29998052
I12
tp4411
I0
s(I17374553
I0
tp4412
I1
s(I35281863
I0
tp4413
I0
s(I35153942
I1
tp4414
I0
s(I20725343
I1
tp4415
I0
s(I32670153
I0
tp4416
I1
s(I18556448
I0
tp4417
I1
s(I35108136
I0
tp4418
I1
s(I9456233
I1
tp4419
I0
s(I10500834
I0
tp4420
I1
s(I22134243
I0
tp4421
I1
s(I27773141
I1
tp4422
I1
s(I29258758
I1
tp4423
I0
s(I31404492
I0
tp4424
I0
s(I34463966
I2
tp4425
I0
s(I10843549
I1
tp4426
I0
s(I36719792
I0
tp4427
I1
s(I35431172
I3
tp4428
I0
s(I7681301
I1
tp4429
I0
s(I32458370
I3
tp4430
I0
s(I36186624
I2
tp4431
I0
s(I5332701
I3
tp4432
I1
s(I36988306
I0
tp4433
I0
s(I23626026
I3
tp4434
I0
s(I11514277
I0
tp4435
I1
s(I23047215
I2
tp4436
I1
s(I9761554
I0
tp4437
I1
s(I24327683
I0
tp4438
I1
s(I23642406
I1
tp4439
I1
s(I27024392
I0
tp4440
I1
s(I19330415
I0
tp4441
I1
s(I32821122
I1
tp4442
I1
s(I1448820
I0
tp4443
I0
s(I14692029
I1
tp4444
I1
s(I25537262
I1
tp4445
I0
s(I30170614
I2
tp4446
I1
s(I23677258
I1
tp4447
I0
s(I18646076
I0
tp4448
I1
s(I30242208
I9
tp4449
I0
s(I12504976
I2
tp4450
I0
s(I37417157
I3
tp4451
I0
s(I26453595
I0
tp4452
I1
s(I35611992
I0
tp4453
I1
s(I3986345
I1
tp4454
I0
s(I22567247
I2
tp4455
I0
s(I5332701
I1
tp4456
I1
s(I33140945
I0
tp4457
I0
s(I7950124
I0
tp4458
I1
s(I22518000
I2
tp4459
I0
s(I20470749
I1
tp4460
I0
s(I34271014
I2
tp4461
I0
s(I32679481
I1
tp4462
I0
s(I2534786
I2
tp4463
I0
s(I30992225
I0
tp4464
I1
s(I19665491
I1
tp4465
I0
s(I34444319
I0
tp4466
I1
s(I12501761
I1
tp4467
I0
s(I28255693
I0
tp4468
I1
s(I18353465
I1
tp4469
I1
s(I34683678
I1
tp4470
I1
s(I31665106
I0
tp4471
I1
s(I36950503
I0
tp4472
I1
s(I31919765
I0
tp4473
I1
s(I35609991
I1
tp4474
I1
s(I31021283
I1
tp4475
I0
s(I31347715
I0
tp4476
I0
s(I25838448
I1
tp4477
I1
s(I14972601
I0
tp4478
I1
s(I20062684
I1
tp4479
I0
s(I30411388
I0
tp4480
I1
s(I5726827
I1
tp4481
I0
s(I34601770
I0
tp4482
I1
s(I10829302
I1
tp4483
I1
s(I19882621
I5
tp4484
I0
s(I23555995
I0
tp4485
I1
s(I34596082
I0
tp4486
I1
s(I8419817
I1
tp4487
I1
s(I36572221
I1
tp4488
I1
s(I34456661
I1
tp4489
I0
s(I23224696
I1
tp4490
I0
s(I1480655
I0
tp4491
I0
s(I11269104
I2
tp4492
I0
s(I22161088
I1
tp4493
I0
s(I14720912
I1
tp4494
I1
s(I8405977
I0
tp4495
I0
s(I19274492
I1
tp4496
I0
s(I2363954
I1
tp4497
I0
s(I23648826
I0
tp4498
I1
s(I34556645
I1
tp4499
I1
s(I19936790
I1
tp4500
I1
s(I28654483
I1
tp4501
I0
s(I21314143
I0
tp4502
I1
s(I29308274
I1
tp4503
I0
s(I25765631
I1
tp4504
I0
s(I2454494
I1
tp4505
I1
s(I31704411
I1
tp4506
I0
s(I16056574
I0
tp4507
I1
s(I10460286
I0
tp4508
I1
s(I35656186
I3
tp4509
I0
s(I26922284
I0
tp4510
I0
s(I19962586
I0
tp4511
I0
s(I10108070
I1
tp4512
I1
s(I26205922
I2
tp4513
I0
s(I15702753
I2
tp4514
I0
s(I21439948
I6
tp4515
I0
s(I20082507
I0
tp4516
I1
s(I21756477
I1
tp4517
I0
s(I24495059
I2
tp4518
I0
s(I10342939
I1
tp4519
I0
s(I11830474
I1
tp4520
I1
s(I25024087
I1
tp4521
I0
s(I26511109
I1
tp4522
I1
s(I16876342
I1
tp4523
I1
s(I33477811
I1
tp4524
I0
s(I33288420
I1
tp4525
I1
s(I34030902
I1
tp4526
I0
s(I34244726
I3
tp4527
I0
s(I22484903
I3
tp4528
I0
s(I29974139
I1
tp4529
I0
s(I33037416
I2
tp4530
I1
s(I31650674
I2
tp4531
I0
s(I8948166
I1
tp4532
I0
s(I32026028
I1
tp4533
I0
s(I2964751
I0
tp4534
I1
s(I35254886
I0
tp4535
I1
s(I36549666
I1
tp4536
I1
s(I29935056
I1
tp4537
I1
s(I31393692
I2
tp4538
I0
s(I25690354
I6
tp4539
I0
s(I37501075
I3
tp4540
I0
s(I15820788
I2
tp4541
I0
s(I33705180
I0
tp4542
I1
s(I11832984
I1
tp4543
I0
s(I24145957
I1
tp4544
I1
s(I30960440
I0
tp4545
I0
s(I18474538
I3
tp4546
I0
s(I27857842
I5
tp4547
I0
s(I32975636
I1
tp4548
I0
s(I9242450
I0
tp4549
I1
s(I20445470
I1
tp4550
I1
s(I27150664
I0
tp4551
I1
s(I13454695
I0
tp4552
I0
s(I2470764
I0
tp4553
I0
s(I35108136
I1
tp4554
I1
s(I35373082
I0
tp4555
I0
s(I26563683
I1
tp4556
I0
s(I16689117
I0
tp4557
I1
s(I10108368
I2
tp4558
I0
s(I16862690
I0
tp4559
I1
s(I5761617
I3
tp4560
I0
s(I24243929
I1
tp4561
I0
s(I23635576
I0
tp4562
I0
s(I19045971
I0
tp4563
I1
s(I30443894
I1
tp4564
I1
s(I14622698
I2
tp4565
I0
s(I11388032
I1
tp4566
I0
s(I27031053
I1
tp4567
I1
s(I18919032
I0
tp4568
I1
s(I29392606
I0
tp4569
I1
s(I14940338
I2
tp4570
I1
s(I20243683
I0
tp4571
I0
s(I9969684
I2
tp4572
I1
s(I12329807
I0
tp4573
I0
s(I28417585
I1
tp4574
I1
s(I33554230
I0
tp4575
I1
s(I682504
I1
tp4576
I1
s(I23732057
I0
tp4577
I1
s(I17260358
I2
tp4578
I1
s(I13276796
I1
tp4579
I1
s(I3038661
I0
tp4580
I0
s(I23059398
I1
tp4581
I1
s(I25690354
I1
tp4582
I0
s(I14363016
I4
tp4583
I0
s(I20063721
I0
tp4584
I1
s(I25344576
I0
tp4585
I1
s(I30909414
I7
tp4586
I1
s(I18802249
I0
tp4587
I0
s(I13913530
I1
tp4588
I1
s(I29509781
I2
tp4589
I0
s(I33354950
I0
tp4590
I1
s(I36949277
I0
tp4591
I1
s(I29309643
I0
tp4592
I1
s(I8685308
I2
tp4593
I0
s(I22394350
I1
tp4594
I0
s(I35389648
I0
tp4595
I1
s(I4868900
I1
tp4596
I0
s(I25047254
I5
tp4597
I0
s(I25467360
I4
tp4598
I0
s(I35668472
I1
tp4599
I1
s(I30272538
I6
tp4600
I0
s(I5761617
I4
tp4601
I0
s(I24584784
I1
tp4602
I1
s(I32497161
I0
tp4603
I1
s(I20778951
I0
tp4604
I1
s(I14436970
I4
tp4605
I0
s(I17778394
I1
tp4606
I0
s(I19917545
I0
tp4607
I0
s(I11944826
I0
tp4608
I1
s(I21208724
I0
tp4609
I0
s(I35485675
I0
tp4610
I0
s(I18233948
I0
tp4611
I1
s(I19297410
I2
tp4612
I0
s(I24129445
I1
tp4613
I0
s(I23114734
I2
tp4614
I0
s(I13382774
I0
tp4615
I1
s(I37374947
I1
tp4616
I0
s(I20531168
I1
tp4617
I0
s(I23837696
I1
tp4618
I1
s(I33607716
I0
tp4619
I0
s(I14494101
I0
tp4620
I1
s(I32497161
I1
tp4621
I1
s(I6727491
I0
tp4622
I1
s(I35209114
I0
tp4623
I1
s(I31202918
I1
tp4624
I0
s(I14601544
I0
tp4625
I0
s(I24896943
I0
tp4626
I1
s(I14363016
I3
tp4627
I1
s(I20593215
I3
tp4628
I0
s(I34146928
I1
tp4629
I1
s(I11242667
I1
tp4630
I0
s(I19461747
I1
tp4631
I0
s(I15066913
I1
tp4632
I0
s(I29351492
I0
tp4633
I1
s(I20846235
I0
tp4634
I0
s(I36458482
I0
tp4635
I1
s(I2575672
I0
tp4636
I1
s(I34260522
I1
tp4637
I0
s(I30272538
I1
tp4638
I0
s(I14462993
I1
tp4639
I0
s(I28176483
I0
tp4640
I1
s(I25345843
I2
tp4641
I1
s(I31392017
I0
tp4642
I1
s(I29195983
I0
tp4643
I1
s(I35656186
I2
tp4644
I0
s(I36149707
I1
tp4645
I0
s(I15062205
I2
tp4646
I0
s(I20198951
I2
tp4647
I0
s(I23298460
I0
tp4648
I0
s(I27054358
I1
tp4649
I1
s(I30559807
I1
tp4650
I1
s(I35252265
I6
tp4651
I0
s(I17636790
I0
tp4652
I0
s(I10602071
I1
tp4653
I0
s(I16057689
I0
tp4654
I1
s(I582723
I2
tp4655
I0
s(I2305115
I1
tp4656
I1
s(I18040702
I0
tp4657
I1
s(I31105362
I2
tp4658
I0
s(I34818228
I2
tp4659
I1
s(I17811168
I4
tp4660
I0
s(I31499985
I1
tp4661
I0
s(I16070219
I0
tp4662
I1
s(I22118136
I1
tp4663
I0
s(I17065977
I0
tp4664
I1
s(I31029467
I1
tp4665
I1
s(I4791080
I1
tp4666
I0
s(I18589821
I0
tp4667
I1
s(I8605189
I1
tp4668
I0
s(I7172290
I2
tp4669
I1
s(I6237378
I1
tp4670
I0
s(I2743712
I2
tp4671
I0
s(I20147593
I0
tp4672
I1
s(I4659579
I1
tp4673
I0
s(I22534983
I0
tp4674
I1
s(I28800634
I1
tp4675
I1
s(I18086307
I0
tp4676
I0
s(I30506746
I0
tp4677
I1
s(I35431172
I1
tp4678
I0
s(I23961648
I2
tp4679
I0
s(I29153805
I0
tp4680
I1
s(I7933596
I2
tp4681
I0
s(I35293171
I2
tp4682
I0
s(I20892950
I2
tp4683
I1
s(I17270318
I0
tp4684
I1
s(I21298821
I0
tp4685
I0
s(I25217124
I2
tp4686
I1
s(I28755798
I1
tp4687
I0
s(I17762515
I1
tp4688
I0
s(I31394463
I0
tp4689
I1
s(I15869158
I1
tp4690
I1
s(I28647371
I2
tp4691
I0
s(I31462265
I1
tp4692
I0
s(I22328160
I1
tp4693
I1
s(I32148804
I0
tp4694
I1
s(I27255080
I1
tp4695
I1
s(I18765094
I2
tp4696
I0
s(I9252871
I1
tp4697
I0
s(I5332701
I0
tp4698
I1
s(I24518769
I0
tp4699
I0
s(I9410760
I0
tp4700
I1
s(I27551921
I2
tp4701
I0
s(I18353465
I0
tp4702
I1
s(I36923865
I1
tp4703
I0
s(I13669642
I1
tp4704
I0
s(I36041797
I1
tp4705
I1
s(I5148790
I1
tp4706
I1
s(I18289871
I1
tp4707
I0
s(I20892950
I1
tp4708
I1
s(I21513187
I1
tp4709
I0
s(I29998052
I8
tp4710
I0
s(I27150664
I1
tp4711
I1
s(I4006970
I0
tp4712
I1
s(I6687619
I1
tp4713
I1
s(I21097039
I0
tp4714
I0
s(I15014326
I0
tp4715
I1
s(I4397859
I0
tp4716
I1
s(I37659598
I1
tp4717
I0
s(I24780464
I0
tp4718
I0
s(I34374393
I1
tp4719
I1
s(I28832166
I1
tp4720
I1
s(I16123732
I2
tp4721
I0
s(I33099417
I2
tp4722
I0
s(I6220490
I0
tp4723
I1
s(I35199556
I1
tp4724
I1
s(I23837696
I2
tp4725
I1
s(I34503246
I0
tp4726
I1
s(I28716265
I0
tp4727
I1
s(I33270388
I1
tp4728
I1
s(I14154851
I3
tp4729
I1
s(I36170581
I0
tp4730
I0
s(I19908167
I1
tp4731
I0
s(I28812868
I0
tp4732
I0
s(I34672986
I0
tp4733
I0
s(I7508774
I1
tp4734
I0
s(I31230972
I0
tp4735
I1
s(I18114415
I0
tp4736
I1
s(I34930630
I0
tp4737
I1
s(I33105265
I1
tp4738
I0
s(I11576779
I0
tp4739
I1
s(I30683325
I1
tp4740
I1
s(I31462265
I0
tp4741
I0
s(I19317766
I2
tp4742
I0
s(I37122210
I1
tp4743
I0
s(I27605834
I1
tp4744
I0
s(I33139927
I1
tp4745
I0
s(I12496531
I0
tp4746
I1
s(I22961541
I1
tp4747
I0
s(I15014326
I1
tp4748
I0
s(I10805846
I0
tp4749
I0
s(I32346156
I1
tp4750
I0
s(I33928554
I4
tp4751
I0
s(I12986272
I1
tp4752
I0
s(I4867037
I1
tp4753
I0
s(I11255432
I1
tp4754
I0
s(I24018965
I1
tp4755
I0
s(I3102098
I5
tp4756
I0
s(I34468751
I0
tp4757
I1
s(I26700006
I0
tp4758
I1
s(I956820
I0
tp4759
I0
s(I2305501
I1
tp4760
I0
s(I23310630
I2
tp4761
I0
s(I8019287
I0
tp4762
I1
s(I36798227
I3
tp4763
I0
s(I2337285
I0
tp4764
I1
s(I34931548
I0
tp4765
I1
s(I35306419
I0
tp4766
I1
s(I31567882
I0
tp4767
I1
s(I5464504
I0
tp4768
I0
s(I12081704
I5
tp4769
I0
s(I973481
I4
tp4770
I0
s(I30977603
I0
tp4771
I1
s(I18157559
I1
tp4772
I1
s(I31562641
I1
tp4773
I1
s(I36579996
I3
tp4774
I0
s(I21500596
I0
tp4775
I1
s(I19368715
I0
tp4776
I1
s(I15183718
I0
tp4777
I1
s(I21439948
I4
tp4778
I0
s(I16057689
I1
tp4779
I1
s(I23231840
I2
tp4780
I0
s(I10024640
I1
tp4781
I0
s(I28416559
I4
tp4782
I0
s(I27591621
I1
tp4783
I0
s(I5825921
I0
tp4784
I1
s(I17471682
I2
tp4785
I0
s(I27779615
I1
tp4786
I0
s(I13839905
I1
tp4787
I0
s(I24772845
I0
tp4788
I1
s(I26279903
I1
tp4789
I1
s(I27947419
I0
tp4790
I0
s(I30414578
I0
tp4791
I1
s(I37482313
I0
tp4792
I0
s(I26830752
I0
tp4793
I0
s(I11676649
I1
tp4794
I0
s(I2857634
I0
tp4795
I0
s(I32802833
I0
tp4796
I1
s(I28754280
I0
tp4797
I1
s(I13562613
I2
tp4798
I0
s(I18062466
I0
tp4799
I1
s(I32921049
I0
tp4800
I1
s(I17203403
I1
tp4801
I1
s(I35489107
I3
tp4802
I0
s(I28348485
I0
tp4803
I1
s(I21532471
I1
tp4804
I0
s(I15398904
I0
tp4805
I1
s(I14383937
I1
tp4806
I0
s(I100210
I1
tp4807
I0
s(I18787830
I2
tp4808
I1
s(I36459148
I1
tp4809
I0
s(I14421630
I0
tp4810
I1
s(I27444949
I0
tp4811
I1
s(I11984684
I0
tp4812
I1
s(I9394051
I0
tp4813
I1
s(I10108368
I6
tp4814
I0
s(I17687453
I0
tp4815
I1
s(I36798227
I0
tp4816
I0
s(I1783251
I2
tp4817
I0
s(I27007260
I1
tp4818
I1
s(I9575384
I2
tp4819
I0
s(I2337285
I1
tp4820
I0
s(I7586936
I1
tp4821
I1
s(I28812868
I2
tp4822
I0
s(I11040604
I1
tp4823
I0
s(I8671702
I0
tp4824
I1
s(I3306189
I1
tp4825
I1
s(I23576318
I1
tp4826
I1
s(I30837683
I1
tp4827
I1
s(I2005234
I2
tp4828
I0
s(I28438247
I1
tp4829
I1
s(I5300387
I0
tp4830
I1
s(I36709837
I1
tp4831
I0
s(I26871083
I2
tp4832
I0
s(I26450673
I1
tp4833
I0
s(I33203746
I1
tp4834
I1
s(I35083540
I0
tp4835
I1
s(I32940738
I0
tp4836
I1
s(I9091299
I0
tp4837
I0
s(I7907848
I1
tp4838
I1
s(I27887545
I1
tp4839
I1
s(I6205592
I1
tp4840
I0
s(I16143648
I3
tp4841
I0
s(I25664682
I2
tp4842
I0
s(I25435908
I1
tp4843
I1
s(I21159782
I1
tp4844
I0
s(I24065575
I2
tp4845
I1
s(I34799167
I1
tp4846
I0
s(I36794619
I0
tp4847
I1
s(I18580032
I1
tp4848
I1
s(I22700457
I0
tp4849
I1
s(I18040702
I2
tp4850
I1
s(I26897708
I0
tp4851
I1
s(I24833045
I0
tp4852
I1
s(I32652039
I1
tp4853
I0
s(I16689117
I3
tp4854
I1
s(I34073053
I0
tp4855
I1
s(I15721679
I1
tp4856
I0
s(I30904903
I2
tp4857
I0
s(I23231840
I6
tp4858
I0
s(I26983187
I2
tp4859
I0
s(I22024409
I1
tp4860
I0
s(I15459675
I0
tp4861
I1
s(I3458542
I3
tp4862
I0
s(I28364676
I2
tp4863
I0
s(I15510367
I1
tp4864
I0
s(I24055067
I0
tp4865
I1
s(I22880882
I0
tp4866
I1
s(I36783166
I1
tp4867
I0
s(I10437805
I2
tp4868
I1
s(I27739381
I0
tp4869
I1
s(I25690778
I1
tp4870
I0
s(I10741346
I0
tp4871
I1
s(I19031953
I0
tp4872
I1
s(I33578676
I1
tp4873
I1
s(I4808753
I1
tp4874
I1
s(I28404183
I2
tp4875
I0
s(I32316244
I0
tp4876
I1
s(I11382536
I1
tp4877
I0
s(I17486578
I1
tp4878
I0
s(I27855146
I1
tp4879
I0
s(I21111836
I0
tp4880
I0
s(I2983959
I3
tp4881
I0
s(I26277322
I0
tp4882
I0
s(I37299064
I0
tp4883
I1
s(I6566642
I1
tp4884
I1
s.