c__builtin__
set
p0
((lp1
(I20792891
I0
tp2
a(I23091177
I0
tp3
a(I19270316
I0
tp4
a(I14675304
I1
tp5
a(I20250357
I1
tp6
a(I31444591
I0
tp7
a(I10164354
I1
tp8
a(I10666965
I4
tp9
a(I27979526
I2
tp10
a(I19163959
I0
tp11
a(I29359799
I1
tp12
a(I33428932
I2
tp13
a(I14636287
I0
tp14
a(I16756054
I0
tp15
a(I24660075
I4
tp16
a(I35011175
I1
tp17
a(I23552848
I1
tp18
a(I17070859
I1
tp19
a(I5816567
I1
tp20
a(I25652248
I1
tp21
a(I36478669
I0
tp22
a(I14961787
I0
tp23
a(I17890157
I1
tp24
a(I23963860
I3
tp25
a(I10532323
I1
tp26
a(I19645073
I1
tp27
a(I23908145
I2
tp28
a(I6611453
I1
tp29
a(I6174355
I2
tp30
a(I31468957
I2
tp31
a(I30977821
I0
tp32
a(I6057352
I1
tp33
a(I33447891
I0
tp34
a(I11495713
I1
tp35
a(I25916350
I1
tp36
a(I36586811
I1
tp37
a(I32802567
I0
tp38
a(I706664
I0
tp39
a(I31741652
I0
tp40
a(I7748125
I1
tp41
a(I28961739
I1
tp42
a(I15622474
I0
tp43
a(I8451219
I1
tp44
a(I7008452
I1
tp45
a(I4225984
I0
tp46
a(I25390857
I1
tp47
a(I3579079
I1
tp48
a(I28752104
I1
tp49
a(I33860657
I0
tp50
a(I32095863
I2
tp51
a(I27521297
I3
tp52
a(I27315388
I0
tp53
a(I8046386
I0
tp54
a(I15108987
I1
tp55
a(I5182723
I0
tp56
a(I35903825
I0
tp57
a(I7364969
I3
tp58
a(I37648860
I0
tp59
a(I3035105
I0
tp60
a(I24375773
I5
tp61
a(I30643949
I1
tp62
a(I37109635
I2
tp63
a(I14374677
I0
tp64
a(I2386632
I0
tp65
a(I13345583
I0
tp66
a(I22668248
I4
tp67
a(I29628590
I1
tp68
a(I3623645
I0
tp69
a(I30141267
I0
tp70
a(I3900330
I0
tp71
a(I3084672
I1
tp72
a(I3444082
I0
tp73
a(I7794875
I1
tp74
a(I13230133
I0
tp75
a(I28775590
I0
tp76
a(I16877276
I2
tp77
a(I7364969
I4
tp78
a(I29883190
I0
tp79
a(I32526207
I1
tp80
a(I12712480
I1
tp81
a(I5020149
I1
tp82
a(I22914453
I2
tp83
a(I27417566
I1
tp84
a(I13427389
I1
tp85
a(I18001322
I0
tp86
a(I31721962
I0
tp87
a(I24316425
I1
tp88
a(I17703008
I0
tp89
a(I30030023
I0
tp90
a(I713960
I2
tp91
a(I30652021
I0
tp92
a(I7745609
I2
tp93
a(I35753972
I1
tp94
a(I4866013
I1
tp95
a(I25579264
I4
tp96
a(I3609687
I0
tp97
a(I2056938
I2
tp98
a(I25839647
I0
tp99
a(I7364969
I13
tp100
a(I28986618
I1
tp101
a(I30356880
I4
tp102
a(I13537347
I0
tp103
a(I9789395
I1
tp104
a(I26494428
I1
tp105
a(I17017125
I0
tp106
a(I24040926
I0
tp107
a(I19582011
I1
tp108
a(I16688990
I0
tp109
a(I37624090
I1
tp110
a(I34031494
I1
tp111
a(I26804962
I1
tp112
a(I1479831
I0
tp113
a(I31281768
I5
tp114
a(I26285750
I0
tp115
a(I27789682
I1
tp116
a(I17851492
I0
tp117
a(I30458856
I1
tp118
a(I6280565
I1
tp119
a(I8223650
I0
tp120
a(I27122437
I1
tp121
a(I19532288
I3
tp122
a(I19866409
I1
tp123
a(I6621502
I3
tp124
a(I25076117
I1
tp125
a(I29318004
I1
tp126
a(I25472241
I1
tp127
a(I2289907
I2
tp128
a(I9218949
I0
tp129
a(I15872394
I0
tp130
a(I23676371
I1
tp131
a(I33939688
I3
tp132
a(I16507239
I0
tp133
a(I31533615
I0
tp134
a(I33447891
I1
tp135
a(I15836482
I1
tp136
a(I15616278
I0
tp137
a(I192220
I5
tp138
a(I22311646
I0
tp139
a(I10787043
I0
tp140
a(I2788575
I0
tp141
a(I10694376
I0
tp142
a(I9623187
I2
tp143
a(I26496183
I1
tp144
a(I11260900
I0
tp145
a(I33965409
I2
tp146
a(I21626432
I0
tp147
a(I28285834
I1
tp148
a(I6673667
I0
tp149
a(I22366810
I0
tp150
a(I32819225
I1
tp151
a(I3925043
I1
tp152
a(I30578605
I0
tp153
a(I33137311
I1
tp154
a(I27166043
I0
tp155
a(I8546198
I2
tp156
a(I6814426
I1
tp157
a(I30805539
I0
tp158
a(I13584250
I0
tp159
a(I30934830
I0
tp160
a(I15243399
I1
tp161
a(I36249094
I0
tp162
a(I21280605
I0
tp163
a(I10199927
I0
tp164
a(I22537662
I1
tp165
a(I36377860
I1
tp166
a(I23997222
I0
tp167
a(I34191191
I2
tp168
a(I11783678
I4
tp169
a(I26063286
I0
tp170
a(I23166266
I1
tp171
a(I30166727
I1
tp172
a(I21389431
I2
tp173
a(I2559110
I2
tp174
a(I31720854
I6
tp175
a(I12088243
I1
tp176
a(I18186212
I1
tp177
a(I21613270
I0
tp178
a(I9394879
I6
tp179
a(I1809787
I1
tp180
a(I5393244
I2
tp181
a(I19902526
I3
tp182
a(I28277247
I0
tp183
a(I11852951
I2
tp184
a(I23924244
I0
tp185
a(I35700944
I1
tp186
a(I32372280
I0
tp187
a(I21424132
I1
tp188
a(I19155321
I1
tp189
a(I24082669
I1
tp190
a(I24012213
I1
tp191
a(I31978339
I1
tp192
a(I8143581
I0
tp193
a(I15512015
I1
tp194
a(I1979522
I3
tp195
a(I25032106
I0
tp196
a(I30099821
I0
tp197
a(I20935221
I0
tp198
a(I23803359
I5
tp199
a(I12151979
I0
tp200
a(I33633660
I1
tp201
a(I16093468
I0
tp202
a(I13069202
I0
tp203
a(I11350686
I3
tp204
a(I14672688
I1
tp205
a(I16426039
I0
tp206
a(I18865590
I1
tp207
a(I28082687
I0
tp208
a(I35756149
I0
tp209
a(I21075815
I1
tp210
a(I35701321
I2
tp211
a(I30174842
I0
tp212
a(I17325149
I10
tp213
a(I24372541
I0
tp214
a(I23803359
I2
tp215
a(I28474871
I1
tp216
a(I27379264
I2
tp217
a(I17833022
I0
tp218
a(I33831023
I2
tp219
a(I33279715
I1
tp220
a(I14469652
I1
tp221
a(I25046224
I2
tp222
a(I26332939
I0
tp223
a(I28308752
I0
tp224
a(I31840220
I1
tp225
a(I21832842
I1
tp226
a(I955927
I1
tp227
a(I20838921
I6
tp228
a(I25522070
I0
tp229
a(I216007
I2
tp230
a(I16053215
I1
tp231
a(I35577600
I1
tp232
a(I20519532
I1
tp233
a(I7994408
I2
tp234
a(I18708680
I1
tp235
a(I26341790
I2
tp236
a(I30494810
I3
tp237
a(I36425557
I4
tp238
a(I31448656
I0
tp239
a(I7656057
I1
tp240
a(I17325149
I3
tp241
a(I26729494
I1
tp242
a(I15117826
I4
tp243
a(I19270491
I1
tp244
a(I18724492
I1
tp245
a(I19408757
I1
tp246
a(I15627299
I1
tp247
a(I13840468
I1
tp248
a(I23768482
I0
tp249
a(I2411210
I1
tp250
a(I35647425
I0
tp251
a(I10389260
I2
tp252
a(I14746540
I1
tp253
a(I14965566
I3
tp254
a(I13410246
I1
tp255
a(I7676110
I1
tp256
a(I11114638
I1
tp257
a(I34417879
I0
tp258
a(I18858779
I5
tp259
a(I15264563
I0
tp260
a(I23176321
I1
tp261
a(I28397342
I1
tp262
a(I20454604
I1
tp263
a(I11468551
I1
tp264
a(I6836478
I2
tp265
a(I15743183
I1
tp266
a(I13840468
I8
tp267
a(I24194784
I2
tp268
a(I15742348
I0
tp269
a(I33541995
I2
tp270
a(I7901416
I0
tp271
a(I13024512
I2
tp272
a(I33573890
I0
tp273
a(I18922620
I1
tp274
a(I33372188
I0
tp275
a(I14930630
I1
tp276
a(I11847584
I1
tp277
a(I15150057
I0
tp278
a(I14124763
I1
tp279
a(I31010476
I0
tp280
a(I20954662
I1
tp281
a(I15621609
I0
tp282
a(I2318539
I0
tp283
a(I19101688
I1
tp284
a(I2056938
I0
tp285
a(I29012160
I1
tp286
a(I14385741
I1
tp287
a(I25144691
I1
tp288
a(I28068971
I4
tp289
a(I22348948
I0
tp290
a(I18852505
I0
tp291
a(I32880727
I0
tp292
a(I36402026
I1
tp293
a(I6333687
I1
tp294
a(I12063841
I0
tp295
a(I20661535
I0
tp296
a(I14296002
I4
tp297
a(I15834569
I1
tp298
a(I19447701
I0
tp299
a(I24275420
I0
tp300
a(I23807485
I1
tp301
a(I18749306
I5
tp302
a(I23642201
I1
tp303
a(I21956650
I0
tp304
a(I16490625
I0
tp305
a(I3550497
I1
tp306
a(I30309531
I0
tp307
a(I5380843
I2
tp308
a(I539942
I0
tp309
a(I22393469
I0
tp310
a(I29446361
I0
tp311
a(I9429371
I2
tp312
a(I22228967
I2
tp313
a(I3895652
I0
tp314
a(I14540736
I0
tp315
a(I4459902
I0
tp316
a(I19718193
I0
tp317
a(I15948208
I1
tp318
a(I14513314
I0
tp319
a(I24779447
I0
tp320
a(I20792891
I3
tp321
a(I23954139
I0
tp322
a(I12463628
I2
tp323
a(I31277383
I0
tp324
a(I19716510
I0
tp325
a(I13967474
I2
tp326
a(I31444591
I3
tp327
a(I19189050
I2
tp328
a(I27979526
I3
tp329
a(I29027827
I2
tp330
a(I19353473
I1
tp331
a(I6994843
I1
tp332
a(I9172621
I2
tp333
a(I11822599
I1
tp334
a(I18570414
I1
tp335
a(I4352912
I0
tp336
a(I5816567
I0
tp337
a(I12698945
I2
tp338
a(I1773534
I0
tp339
a(I16335925
I0
tp340
a(I28147528
I1
tp341
a(I8044345
I0
tp342
a(I31468957
I1
tp343
a(I32697433
I0
tp344
a(I30003686
I2
tp345
a(I17352572
I1
tp346
a(I13234818
I3
tp347
a(I11495713
I0
tp348
a(I23907556
I0
tp349
a(I16874590
I1
tp350
a(I31741652
I1
tp351
a(I17558290
I4
tp352
a(I20546039
I2
tp353
a(I28961739
I0
tp354
a(I10121680
I0
tp355
a(I29474365
I0
tp356
a(I4521020
I0
tp357
a(I9535224
I1
tp358
a(I4225984
I1
tp359
a(I25390857
I0
tp360
a(I3579079
I0
tp361
a(I12265411
I1
tp362
a(I21286804
I0
tp363
a(I16143769
I0
tp364
a(I8216437
I1
tp365
a(I20197566
I4
tp366
a(I8046386
I1
tp367
a(I15108987
I0
tp368
a(I28846567
I0
tp369
a(I27122437
I0
tp370
a(I29771413
I0
tp371
a(I35478088
I0
tp372
a(I1069311
I2
tp373
a(I23478919
I0
tp374
a(I24375773
I4
tp375
a(I14838374
I2
tp376
a(I35268549
I5
tp377
a(I24707125
I0
tp378
a(I22668248
I5
tp379
a(I6093085
I1
tp380
a(I10019557
I1
tp381
a(I7794875
I0
tp382
a(I12498046
I0
tp383
a(I28775590
I1
tp384
a(I37270805
I2
tp385
a(I7364969
I11
tp386
a(I33156695
I1
tp387
a(I29883190
I1
tp388
a(I18020825
I3
tp389
a(I32526207
I0
tp390
a(I37452178
I1
tp391
a(I27563140
I0
tp392
a(I22914453
I1
tp393
a(I14838374
I0
tp394
a(I13427389
I0
tp395
a(I20096624
I0
tp396
a(I31132669
I2
tp397
a(I17703008
I1
tp398
a(I29598252
I2
tp399
a(I35753972
I2
tp400
a(I34610639
I4
tp401
a(I19707228
I1
tp402
a(I24438529
I0
tp403
a(I7364969
I12
tp404
a(I33118186
I2
tp405
a(I23096845
I1
tp406
a(I30356880
I5
tp407
a(I16668803
I1
tp408
a(I28611170
I1
tp409
a(I13096793
I0
tp410
a(I8636956
I0
tp411
a(I24656842
I0
tp412
a(I2199315
I1
tp413
a(I14482625
I1
tp414
a(I19582011
I0
tp415
a(I16688990
I1
tp416
a(I14537280
I0
tp417
a(I26518526
I0
tp418
a(I33510248
I1
tp419
a(I35238887
I6
tp420
a(I12951673
I0
tp421
a(I6937080
I1
tp422
a(I27399755
I4
tp423
a(I25531666
I1
tp424
a(I14285554
I1
tp425
a(I30458856
I2
tp426
a(I37611560
I0
tp427
a(I8223650
I1
tp428
a(I14446303
I2
tp429
a(I2788575
I1
tp430
a(I21234177
I1
tp431
a(I6621502
I0
tp432
a(I15302356
I3
tp433
a(I4823208
I1
tp434
a(I25472241
I0
tp435
a(I22583760
I2
tp436
a(I3240290
I0
tp437
a(I1197943
I0
tp438
a(I23676371
I0
tp439
a(I33939688
I4
tp440
a(I13159227
I1
tp441
a(I21528762
I0
tp442
a(I22629022
I2
tp443
a(I6418214
I0
tp444
a(I2588304
I1
tp445
a(I12713468
I1
tp446
a(I33258020
I2
tp447
a(I21311393
I0
tp448
a(I192220
I6
tp449
a(I28277247
I1
tp450
a(I22311646
I1
tp451
a(I23626176
I0
tp452
a(I4857837
I3
tp453
a(I10694376
I1
tp454
a(I10423479
I0
tp455
a(I11260900
I1
tp456
a(I4017878
I0
tp457
a(I3440516
I0
tp458
a(I21626432
I1
tp459
a(I22366810
I1
tp460
a(I9355066
I2
tp461
a(I3925043
I0
tp462
a(I35036298
I0
tp463
a(I19941944
I0
tp464
a(I31723200
I2
tp465
a(I32943515
I1
tp466
a(I20147303
I0
tp467
a(I13584250
I1
tp468
a(I11783678
I2
tp469
a(I2559110
I0
tp470
a(I18613117
I1
tp471
a(I36834990
I1
tp472
a(I32317079
I1
tp473
a(I10209706
I0
tp474
a(I28190592
I1
tp475
a(I9475177
I1
tp476
a(I31273373
I5
tp477
a(I27418411
I1
tp478
a(I33860211
I0
tp479
a(I35291850
I0
tp480
a(I25420950
I1
tp481
a(I10993546
I2
tp482
a(I25380801
I1
tp483
a(I26862578
I1
tp484
a(I7246987
I2
tp485
a(I24116066
I2
tp486
a(I26063286
I1
tp487
a(I4441599
I0
tp488
a(I34004813
I1
tp489
a(I11900470
I2
tp490
a(I30166727
I0
tp491
a(I15357576
I1
tp492
a(I2884295
I1
tp493
a(I2559110
I3
tp494
a(I11396151
I1
tp495
a(I8139699
I0
tp496
a(I25585674
I0
tp497
a(I21613270
I1
tp498
a(I19902526
I0
tp499
a(I32367084
I0
tp500
a(I27218389
I2
tp501
a(I33633660
I4
tp502
a(I32372280
I1
tp503
a(I24082669
I0
tp504
a(I12407247
I0
tp505
a(I25032106
I1
tp506
a(I25790263
I1
tp507
a(I26496183
I0
tp508
a(I11960289
I2
tp509
a(I21251963
I0
tp510
a(I16093468
I1
tp511
a(I22040663
I1
tp512
a(I33538420
I1
tp513
a(I27876454
I0
tp514
a(I1074529
I1
tp515
a(I14565788
I2
tp516
a(I24657408
I0
tp517
a(I21075815
I0
tp518
a(I35701321
I1
tp519
a(I8015482
I1
tp520
a(I37148559
I3
tp521
a(I26728011
I2
tp522
a(I11912188
I0
tp523
a(I2524600
I1
tp524
a(I27379264
I3
tp525
a(I17833022
I1
tp526
a(I32768245
I0
tp527
a(I33279715
I0
tp528
a(I14469652
I2
tp529
a(I25046224
I3
tp530
a(I28308752
I1
tp531
a(I10389260
I4
tp532
a(I955927
I0
tp533
a(I29312505
I1
tp534
a(I35268549
I0
tp535
a(I2169720
I0
tp536
a(I7676110
I0
tp537
a(I26449233
I1
tp538
a(I33475700
I0
tp539
a(I17325149
I2
tp540
a(I34722021
I0
tp541
a(I24291644
I0
tp542
a(I6688196
I2
tp543
a(I15117826
I5
tp544
a(I10999396
I1
tp545
a(I2695116
I0
tp546
a(I15627299
I0
tp547
a(I28219230
I2
tp548
a(I8293350
I0
tp549
a(I23768482
I1
tp550
a(I10389260
I3
tp551
a(I30437156
I0
tp552
a(I24310683
I0
tp553
a(I14965566
I0
tp554
a(I14930630
I0
tp555
a(I4621932
I4
tp556
a(I35800153
I1
tp557
a(I2900217
I2
tp558
a(I25687106
I5
tp559
a(I30607214
I2
tp560
a(I11468551
I0
tp561
a(I9573470
I0
tp562
a(I33267250
I2
tp563
a(I14860852
I1
tp564
a(I726582
I4
tp565
a(I4841038
I1
tp566
a(I13308281
I1
tp567
a(I19041847
I1
tp568
a(I33593080
I0
tp569
a(I21969425
I0
tp570
a(I21367807
I1
tp571
a(I7116576
I1
tp572
a(I15742348
I1
tp573
a(I8046345
I1
tp574
a(I7901416
I1
tp575
a(I33573890
I1
tp576
a(I18922620
I2
tp577
a(I802027
I1
tp578
a(I29359799
I0
tp579
a(I33483212
I1
tp580
a(I28619830
I1
tp581
a(I18146788
I1
tp582
a(I34696374
I1
tp583
a(I4621932
I3
tp584
a(I14124763
I0
tp585
a(I15445216
I0
tp586
a(I29949018
I1
tp587
a(I14056134
I1
tp588
a(I23948815
I0
tp589
a(I17524409
I1
tp590
a(I2056938
I1
tp591
a(I14732938
I0
tp592
a(I12386646
I1
tp593
a(I35093560
I0
tp594
a(I22399836
I1
tp595
a(I8647675
I0
tp596
a(I8423506
I0
tp597
a(I12366390
I2
tp598
a(I15706765
I2
tp599
a(I9301321
I1
tp600
a(I28619830
I0
tp601
a(I5282607
I0
tp602
a(I17665628
I1
tp603
a(I28252370
I1
tp604
a(I18669731
I2
tp605
a(I19006430
I0
tp606
a(I27055911
I1
tp607
a(I37620195
I0
tp608
a(I8073455
I1
tp609
a(I3702873
I0
tp610
a(I32128843
I1
tp611
a(I21956650
I1
tp612
a(I24622282
I0
tp613
a(I5606689
I0
tp614
a(I3318852
I1
tp615
a(I22909997
I1
tp616
a(I18410600
I1
tp617
a(I28061347
I1
tp618
a(I26102456
I1
tp619
a(I29563877
I0
tp620
a(I37661098
I0
tp621
a(I3895652
I1
tp622
a(I7605630
I1
tp623
a(I33605918
I0
tp624
a(I970357
I0
tp625
a(I33234319
I0
tp626
a(I16797418
I2
tp627
a(I16895364
I1
tp628
a(I27162998
I0
tp629
a(I12463628
I3
tp630
a(I10109770
I2
tp631
a(I19270316
I2
tp632
a(I19716510
I1
tp633
a(I7558371
I1
tp634
a(I10666965
I2
tp635
a(I27979526
I0
tp636
a(I28927069
I0
tp637
a(I30134105
I1
tp638
a(I19353473
I0
tp639
a(I1700110
I2
tp640
a(I37181919
I1
tp641
a(I6994843
I0
tp642
a(I9172621
I1
tp643
a(I4352912
I1
tp644
a(I12335438
I1
tp645
a(I24035933
I3
tp646
a(I8684054
I1
tp647
a(I12698945
I1
tp648
a(I20197566
I2
tp649
a(I31468957
I0
tp650
a(I35321999
I1
tp651
a(I2651249
I2
tp652
a(I17352572
I2
tp653
a(I21869166
I1
tp654
a(I14636901
I0
tp655
a(I21532604
I0
tp656
a(I32594433
I2
tp657
a(I14355527
I0
tp658
a(I35222092
I0
tp659
a(I31741652
I2
tp660
a(I34245868
I0
tp661
a(I10121680
I1
tp662
a(I4521020
I1
tp663
a(I7008452
I3
tp664
a(I21765911
I0
tp665
a(I3579079
I3
tp666
a(I20062208
I0
tp667
a(I25428684
I1
tp668
a(I12265411
I0
tp669
a(I16487093
I1
tp670
a(I36598033
I1
tp671
a(I34121399
I2
tp672
a(I6810923
I1
tp673
a(I20197566
I5
tp674
a(I15808243
I1
tp675
a(I34660036
I0
tp676
a(I13128635
I1
tp677
a(I28339885
I2
tp678
a(I32461027
I0
tp679
a(I37405073
I0
tp680
a(I19359464
I0
tp681
a(I7991363
I1
tp682
a(I3932947
I1
tp683
a(I2386632
I2
tp684
a(I21731573
I1
tp685
a(I1627604
I1
tp686
a(I36583115
I0
tp687
a(I12783579
I4
tp688
a(I14856663
I1
tp689
a(I12498046
I1
tp690
a(I18105224
I1
tp691
a(I14286714
I0
tp692
a(I8111247
I0
tp693
a(I27379264
I0
tp694
a(I2461579
I1
tp695
a(I23116249
I2
tp696
a(I22783242
I0
tp697
a(I22512709
I2
tp698
a(I21740326
I1
tp699
a(I24657408
I1
tp700
a(I16212126
I1
tp701
a(I22914453
I0
tp702
a(I17340363
I2
tp703
a(I13523272
I0
tp704
a(I2913338
I3
tp705
a(I20096624
I1
tp706
a(I16186786
I2
tp707
a(I30030023
I2
tp708
a(I37148559
I2
tp709
a(I35753972
I3
tp710
a(I29470119
I1
tp711
a(I9807875
I1
tp712
a(I22052942
I1
tp713
a(I32277369
I1
tp714
a(I6524697
I2
tp715
a(I25140883
I1
tp716
a(I3332230
I1
tp717
a(I27610637
I0
tp718
a(I30356880
I6
tp719
a(I13595333
I4
tp720
a(I16668803
I0
tp721
a(I25941109
I1
tp722
a(I17707945
I0
tp723
a(I33736317
I3
tp724
a(I2199315
I0
tp725
a(I19577349
I1
tp726
a(I11568694
I1
tp727
a(I3167775
I1
tp728
a(I26518526
I1
tp729
a(I33510248
I2
tp730
a(I37449748
I0
tp731
a(I29721968
I0
tp732
a(I25538698
I0
tp733
a(I26227103
I1
tp734
a(I26965377
I1
tp735
a(I37611560
I1
tp736
a(I25321698
I0
tp737
a(I1421404
I1
tp738
a(I25259434
I0
tp739
a(I11426911
I1
tp740
a(I6621502
I1
tp741
a(I4823208
I2
tp742
a(I6591613
I1
tp743
a(I16799445
I1
tp744
a(I13110356
I0
tp745
a(I18992088
I1
tp746
a(I21546809
I3
tp747
a(I33939688
I5
tp748
a(I20659137
I1
tp749
a(I16507239
I2
tp750
a(I13159227
I0
tp751
a(I11969118
I1
tp752
a(I19835090
I2
tp753
a(I13758033
I1
tp754
a(I192220
I7
tp755
a(I10993546
I3
tp756
a(I35435745
I1
tp757
a(I23626176
I1
tp758
a(I10694376
I2
tp759
a(I20358637
I3
tp760
a(I12989520
I1
tp761
a(I23950035
I1
tp762
a(I26383863
I1
tp763
a(I33965409
I0
tp764
a(I852225
I1
tp765
a(I13618078
I1
tp766
a(I37181919
I2
tp767
a(I36988239
I1
tp768
a(I34845881
I0
tp769
a(I35036298
I1
tp770
a(I19941944
I1
tp771
a(I29292248
I0
tp772
a(I1263780
I1
tp773
a(I8546198
I0
tp774
a(I11783678
I3
tp775
a(I9518900
I1
tp776
a(I18613117
I0
tp777
a(I28043394
I0
tp778
a(I29660006
I2
tp779
a(I32317079
I0
tp780
a(I21692871
I1
tp781
a(I8159093
I1
tp782
a(I21302307
I1
tp783
a(I16426094
I1
tp784
a(I35291850
I1
tp785
a(I25380801
I0
tp786
a(I23106523
I0
tp787
a(I29802055
I0
tp788
a(I14372302
I1
tp789
a(I8030624
I0
tp790
a(I5410918
I0
tp791
a(I13771275
I1
tp792
a(I20546039
I0
tp793
a(I34004813
I0
tp794
a(I10860452
I0
tp795
a(I13419701
I1
tp796
a(I10423479
I1
tp797
a(I8014982
I0
tp798
a(I31720854
I4
tp799
a(I37173392
I0
tp800
a(I36518328
I1
tp801
a(I19902526
I1
tp802
a(I19211707
I1
tp803
a(I32367084
I1
tp804
a(I27218389
I1
tp805
a(I32372280
I2
tp806
a(I11769527
I1
tp807
a(I30356880
I3
tp808
a(I21286642
I1
tp809
a(I4948269
I1
tp810
a(I1179355
I1
tp811
a(I25095284
I1
tp812
a(I18873251
I1
tp813
a(I17099089
I1
tp814
a(I20371389
I1
tp815
a(I4400347
I1
tp816
a(I13054785
I0
tp817
a(I33633660
I3
tp818
a(I16291075
I0
tp819
a(I6811449
I1
tp820
a(I14469652
I4
tp821
a(I25036420
I1
tp822
a(I17044086
I0
tp823
a(I23400658
I0
tp824
a(I11350686
I1
tp825
a(I21832842
I4
tp826
a(I14211346
I2
tp827
a(I10296422
I1
tp828
a(I20838921
I3
tp829
a(I4062865
I1
tp830
a(I22390896
I1
tp831
a(I35260298
I1
tp832
a(I35330341
I1
tp833
a(I29716952
I0
tp834
a(I32150683
I0
tp835
a(I35701321
I0
tp836
a(I35321999
I2
tp837
a(I17325149
I8
tp838
a(I31965908
I0
tp839
a(I25238315
I0
tp840
a(I12527563
I1
tp841
a(I2524600
I2
tp842
a(I13840468
I4
tp843
a(I19279889
I0
tp844
a(I14903899
I1
tp845
a(I22986618
I1
tp846
a(I6440318
I0
tp847
a(I14469652
I3
tp848
a(I25046224
I4
tp849
a(I26332939
I2
tp850
a(I31173730
I2
tp851
a(I12899727
I1
tp852
a(I29312505
I0
tp853
a(I2781419
I1
tp854
a(I2169720
I1
tp855
a(I30843033
I2
tp856
a(I20519532
I3
tp857
a(I21251963
I1
tp858
a(I26341790
I0
tp859
a(I37662540
I0
tp860
a(I4761507
I0
tp861
a(I33475700
I1
tp862
a(I31977969
I1
tp863
a(I79789
I0
tp864
a(I18513029
I0
tp865
a(I12839031
I1
tp866
a(I18920393
I5
tp867
a(I7432065
I1
tp868
a(I374079
I1
tp869
a(I31723200
I1
tp870
a(I18289563
I1
tp871
a(I2695116
I1
tp872
a(I13840468
I3
tp873
a(I27381225
I2
tp874
a(I28278115
I1
tp875
a(I23129852
I0
tp876
a(I18486580
I0
tp877
a(I30437156
I1
tp878
a(I22876321
I1
tp879
a(I14965566
I1
tp880
a(I34417879
I2
tp881
a(I13003656
I1
tp882
a(I35800153
I0
tp883
a(I2900217
I1
tp884
a(I25687106
I2
tp885
a(I13832037
I1
tp886
a(I684106
I0
tp887
a(I34766139
I0
tp888
a(I9573470
I1
tp889
a(I1784283
I1
tp890
a(I13632163
I1
tp891
a(I6159814
I0
tp892
a(I13308281
I0
tp893
a(I28068971
I1
tp894
a(I24550681
I1
tp895
a(I33593080
I1
tp896
a(I6121779
I1
tp897
a(I21367807
I0
tp898
a(I4226144
I0
tp899
a(I7901416
I2
tp900
a(I8718458
I0
tp901
a(I33372188
I2
tp902
a(I27251701
I4
tp903
a(I6591613
I2
tp904
a(I2792388
I0
tp905
a(I31010476
I2
tp906
a(I18547311
I2
tp907
a(I30003686
I1
tp908
a(I20935240
I0
tp909
a(I25207558
I0
tp910
a(I32928624
I1
tp911
a(I23959544
I3
tp912
a(I29827229
I2
tp913
a(I14732938
I1
tp914
a(I23992536
I0
tp915
a(I8423506
I1
tp916
a(I15706765
I1
tp917
a(I32563912
I1
tp918
a(I2769007
I1
tp919
a(I32182160
I1
tp920
a(I37585047
I0
tp921
a(I21167225
I1
tp922
a(I14296002
I2
tp923
a(I22021194
I0
tp924
a(I24636896
I3
tp925
a(I19006430
I1
tp926
a(I27055911
I0
tp927
a(I15543977
I2
tp928
a(I13144230
I0
tp929
a(I32128843
I0
tp930
a(I23034365
I0
tp931
a(I24622282
I1
tp932
a(I22909997
I0
tp933
a(I11900470
I1
tp934
a(I21622435
I0
tp935
a(I11227924
I0
tp936
a(I24660075
I0
tp937
a(I34687839
I2
tp938
a(I35354450
I0
tp939
a(I33605918
I1
tp940
a(I13474207
I2
tp941
a(I16895364
I2
tp942
a(I19270316
I3
tp943
a(I34908511
I1
tp944
a(I19189050
I0
tp945
a(I27979526
I1
tp946
a(I2781315
I1
tp947
a(I35104380
I1
tp948
a(I26088814
I0
tp949
a(I36650818
I2
tp950
a(I1700110
I3
tp951
a(I37181919
I0
tp952
a(I9172621
I0
tp953
a(I18404055
I10
tp954
a(I4986731
I1
tp955
a(I13791170
I3
tp956
a(I12698945
I0
tp957
a(I31899032
I0
tp958
a(I14253673
I1
tp959
a(I29923332
I0
tp960
a(I11463090
I0
tp961
a(I23821632
I1
tp962
a(I35321999
I0
tp963
a(I8046386
I4
tp964
a(I11445551
I1
tp965
a(I11833448
I1
tp966
a(I7278905
I1
tp967
a(I23907556
I2
tp968
a(I11116129
I0
tp969
a(I14866797
I1
tp970
a(I35222092
I1
tp971
a(I31424830
I0
tp972
a(I31741652
I3
tp973
a(I13237623
I1
tp974
a(I11419793
I1
tp975
a(I15100101
I1
tp976
a(I7326337
I0
tp977
a(I33883763
I1
tp978
a(I3579079
I2
tp979
a(I20062208
I1
tp980
a(I15387808
I0
tp981
a(I36598033
I0
tp982
a(I16550767
I1
tp983
a(I6810923
I0
tp984
a(I9197597
I1
tp985
a(I28675581
I4
tp986
a(I28846567
I2
tp987
a(I33608191
I1
tp988
a(I35640282
I1
tp989
a(I7364969
I0
tp990
a(I36936128
I0
tp991
a(I27585801
I1
tp992
a(I29254576
I1
tp993
a(I32150683
I1
tp994
a(I27585801
I0
tp995
a(I29407378
I1
tp996
a(I20146719
I1
tp997
a(I3526673
I1
tp998
a(I30174842
I1
tp999
a(I21731573
I0
tp1000
a(I1627604
I2
tp1001
a(I17325149
I9
tp1002
a(I20707736
I1
tp1003
a(I25579264
I0
tp1004
a(I9764030
I0
tp1005
a(I35471226
I1
tp1006
a(I7364969
I9
tp1007
a(I3332230
I0
tp1008
a(I24848880
I1
tp1009
a(I23116249
I1
tp1010
a(I29645733
I0
tp1011
a(I10109770
I0
tp1012
a(I21835289
I3
tp1013
a(I17707945
I1
tp1014
a(I17017125
I4
tp1015
a(I19872492
I1
tp1016
a(I36433001
I1
tp1017
a(I24794466
I1
tp1018
a(I4301603
I0
tp1019
a(I12849213
I2
tp1020
a(I17703863
I1
tp1021
a(I18404055
I0
tp1022
a(I15400897
I1
tp1023
a(I32427391
I1
tp1024
a(I26942697
I0
tp1025
a(I29470119
I0
tp1026
a(I9807875
I0
tp1027
a(I11135522
I0
tp1028
a(I24970105
I0
tp1029
a(I29141134
I0
tp1030
a(I14830410
I1
tp1031
a(I439138
I2
tp1032
a(I33118186
I0
tp1033
a(I13595333
I3
tp1034
a(I23705421
I1
tp1035
a(I21384239
I1
tp1036
a(I556509
I1
tp1037
a(I19577349
I0
tp1038
a(I22258390
I1
tp1039
a(I17265080
I0
tp1040
a(I3167775
I0
tp1041
a(I14790098
I0
tp1042
a(I35238887
I0
tp1043
a(I11119197
I0
tp1044
a(I17070859
I0
tp1045
a(I36572728
I1
tp1046
a(I3317750
I1
tp1047
a(I22963994
I1
tp1048
a(I36770316
I0
tp1049
a(I14091654
I1
tp1050
a(I14952911
I0
tp1051
a(I10919401
I0
tp1052
a(I3296390
I2
tp1053
a(I20757884
I1
tp1054
a(I18001322
I1
tp1055
a(I20072250
I0
tp1056
a(I5081080
I0
tp1057
a(I24040926
I1
tp1058
a(I16799445
I0
tp1059
a(I22232282
I0
tp1060
a(I10240035
I1
tp1061
a(I13110356
I1
tp1062
a(I34773830
I0
tp1063
a(I23676371
I2
tp1064
a(I22366810
I4
tp1065
a(I7763635
I1
tp1066
a(I22629022
I0
tp1067
a(I31771130
I0
tp1068
a(I20299075
I1
tp1069
a(I27932305
I2
tp1070
a(I35435745
I0
tp1071
a(I14345171
I1
tp1072
a(I23626176
I2
tp1073
a(I9206962
I1
tp1074
a(I23303779
I1
tp1075
a(I11363669
I2
tp1076
a(I31659215
I1
tp1077
a(I3440516
I2
tp1078
a(I852225
I0
tp1079
a(I33962020
I1
tp1080
a(I36086980
I0
tp1081
a(I8153000
I2
tp1082
a(I9355066
I0
tp1083
a(I5355585
I0
tp1084
a(I36988239
I0
tp1085
a(I17524409
I0
tp1086
a(I12773500
I1
tp1087
a(I30607214
I0
tp1088
a(I33137311
I2
tp1089
a(I29292248
I1
tp1090
a(I1263780
I2
tp1091
a(I1830015
I1
tp1092
a(I16036991
I1
tp1093
a(I28043394
I1
tp1094
a(I29660006
I3
tp1095
a(I32317079
I3
tp1096
a(I9548686
I0
tp1097
a(I37303429
I1
tp1098
a(I26398902
I1
tp1099
a(I33648148
I0
tp1100
a(I15243399
I2
tp1101
a(I31720854
I2
tp1102
a(I21692871
I0
tp1103
a(I8159093
I0
tp1104
a(I32962508
I0
tp1105
a(I2044752
I1
tp1106
a(I22910039
I0
tp1107
a(I13241518
I0
tp1108
a(I7246987
I4
tp1109
a(I2781419
I2
tp1110
a(I12579635
I0
tp1111
a(I35508881
I1
tp1112
a(I33451718
I0
tp1113
a(I13771275
I0
tp1114
a(I12085307
I1
tp1115
a(I28031438
I0
tp1116
a(I10993189
I0
tp1117
a(I31544792
I0
tp1118
a(I20643084
I0
tp1119
a(I34082441
I2
tp1120
a(I3296390
I1
tp1121
a(I31720854
I5
tp1122
a(I12530027
I1
tp1123
a(I36518328
I2
tp1124
a(I9394879
I3
tp1125
a(I1809787
I2
tp1126
a(I26682614
I2
tp1127
a(I27218389
I0
tp1128
a(I9655852
I0
tp1129
a(I22366810
I3
tp1130
a(I6355613
I0
tp1131
a(I32372280
I3
tp1132
a(I27817195
I1
tp1133
a(I11769527
I0
tp1134
a(I30298547
I1
tp1135
a(I4948269
I0
tp1136
a(I1179355
I0
tp1137
a(I15512015
I2
tp1138
a(I18873251
I0
tp1139
a(I8939857
I0
tp1140
a(I20371389
I0
tp1141
a(I19073500
I0
tp1142
a(I11960289
I0
tp1143
a(I28263926
I0
tp1144
a(I27855167
I1
tp1145
a(I12013073
I1
tp1146
a(I16136119
I2
tp1147
a(I15376335
I1
tp1148
a(I6811449
I0
tp1149
a(I11844855
I0
tp1150
a(I3244796
I0
tp1151
a(I3053125
I1
tp1152
a(I11282433
I0
tp1153
a(I21535167
I0
tp1154
a(I23400658
I1
tp1155
a(I14211346
I3
tp1156
a(I27417566
I0
tp1157
a(I20838921
I2
tp1158
a(I31685845
I1
tp1159
a(I4062865
I0
tp1160
a(I11510950
I0
tp1161
a(I8384688
I0
tp1162
a(I5455914
I1
tp1163
a(I30494810
I7
tp1164
a(I19459274
I0
tp1165
a(I33613089
I0
tp1166
a(I6551214
I2
tp1167
a(I8629046
I0
tp1168
a(I36131131
I0
tp1169
a(I17325149
I7
tp1170
a(I26728011
I4
tp1171
a(I35263742
I0
tp1172
a(I6688196
I5
tp1173
a(I17099697
I0
tp1174
a(I12527563
I0
tp1175
a(I13840468
I5
tp1176
a(I10182533
I1
tp1177
a(I36377860
I0
tp1178
a(I14903899
I0
tp1179
a(I6440318
I1
tp1180
a(I35777522
I2
tp1181
a(I14849316
I1
tp1182
a(I12899727
I0
tp1183
a(I35238887
I5
tp1184
a(I2169720
I2
tp1185
a(I34417879
I4
tp1186
a(I26341790
I1
tp1187
a(I34954765
I2
tp1188
a(I30108652
I0
tp1189
a(I31977969
I0
tp1190
a(I24291644
I2
tp1191
a(I15117826
I3
tp1192
a(I34218190
I0
tp1193
a(I374079
I0
tp1194
a(I11308438
I0
tp1195
a(I726582
I3
tp1196
a(I2695116
I2
tp1197
a(I15627299
I2
tp1198
a(I27381225
I1
tp1199
a(I28278115
I0
tp1200
a(I23129852
I1
tp1201
a(I18320028
I0
tp1202
a(I35578867
I0
tp1203
a(I22876321
I0
tp1204
a(I8350660
I1
tp1205
a(I11441696
I1
tp1206
a(I6227934
I1
tp1207
a(I19068044
I1
tp1208
a(I24207240
I0
tp1209
a(I21259677
I0
tp1210
a(I20304400
I0
tp1211
a(I11456664
I1
tp1212
a(I25687106
I3
tp1213
a(I13832037
I0
tp1214
a(I14159629
I2
tp1215
a(I18415438
I2
tp1216
a(I11468551
I2
tp1217
a(I33267250
I0
tp1218
a(I23146750
I1
tp1219
a(I26607450
I1
tp1220
a(I182130
I2
tp1221
a(I3345268
I1
tp1222
a(I33791862
I4
tp1223
a(I18575984
I0
tp1224
a(I26548087
I1
tp1225
a(I6121779
I0
tp1226
a(I7116576
I3
tp1227
a(I22959571
I1
tp1228
a(I10777996
I3
tp1229
a(I23349694
I0
tp1230
a(I8718458
I1
tp1231
a(I15532084
I0
tp1232
a(I2045053
I1
tp1233
a(I34309419
I1
tp1234
a(I11696995
I4
tp1235
a(I1326701
I0
tp1236
a(I32304479
I1
tp1237
a(I5355585
I2
tp1238
a(I17102375
I1
tp1239
a(I6434996
I1
tp1240
a(I23959544
I4
tp1241
a(I29827229
I1
tp1242
a(I1742507
I1
tp1243
a(I2473843
I0
tp1244
a(I11404664
I0
tp1245
a(I12870094
I0
tp1246
a(I25275552
I1
tp1247
a(I17598953
I0
tp1248
a(I22742235
I1
tp1249
a(I4429428
I0
tp1250
a(I21669936
I1
tp1251
a(I14296002
I3
tp1252
a(I22021194
I1
tp1253
a(I11436797
I3
tp1254
a(I25547827
I1
tp1255
a(I31072333
I1
tp1256
a(I37620195
I2
tp1257
a(I15543977
I1
tp1258
a(I30932071
I1
tp1259
a(I18749306
I0
tp1260
a(I32049478
I1
tp1261
a(I18477582
I1
tp1262
a(I16442686
I0
tp1263
a(I33897526
I5
tp1264
a(I21740326
I0
tp1265
a(I2466091
I0
tp1266
a(I35822621
I1
tp1267
a(I29113209
I1
tp1268
a(I14565788
I1
tp1269
a(I9623187
I1
tp1270
a(I34908511
I0
tp1271
a(I13967474
I1
tp1272
a(I17352572
I5
tp1273
a(I18377746
I0
tp1274
a(I17057129
I0
tp1275
a(I2781315
I0
tp1276
a(I18737626
I0
tp1277
a(I16216129
I0
tp1278
a(I6616800
I0
tp1279
a(I4986731
I0
tp1280
a(I24035933
I1
tp1281
a(I31899032
I1
tp1282
a(I31565962
I0
tp1283
a(I28109037
I1
tp1284
a(I20197566
I0
tp1285
a(I28537722
I1
tp1286
a(I28628081
I0
tp1287
a(I19279889
I1
tp1288
a(I10477017
I1
tp1289
a(I32594433
I0
tp1290
a(I14730469
I2
tp1291
a(I14866797
I0
tp1292
a(I17558290
I3
tp1293
a(I37109635
I1
tp1294
a(I18404055
I2
tp1295
a(I11793666
I0
tp1296
a(I27832430
I0
tp1297
a(I15100101
I0
tp1298
a(I22668248
I1
tp1299
a(I24633875
I1
tp1300
a(I24726688
I1
tp1301
a(I11292524
I2
tp1302
a(I16550767
I0
tp1303
a(I9197597
I0
tp1304
a(I12419421
I2
tp1305
a(I28675581
I3
tp1306
a(I10777996
I1
tp1307
a(I24795288
I0
tp1308
a(I33608191
I0
tp1309
a(I36936128
I1
tp1310
a(I21409033
I0
tp1311
a(I35913338
I0
tp1312
a(I29521617
I0
tp1313
a(I29254576
I2
tp1314
a(I27304683
I0
tp1315
a(I24375773
I1
tp1316
a(I12221037
I0
tp1317
a(I20146719
I0
tp1318
a(I22668248
I8
tp1319
a(I7681122
I0
tp1320
a(I28152970
I1
tp1321
a(I18359263
I1
tp1322
a(I15203058
I0
tp1323
a(I9764030
I1
tp1324
a(I29240487
I1
tp1325
a(I7270243
I0
tp1326
a(I11480527
I0
tp1327
a(I9861297
I1
tp1328
a(I14501440
I2
tp1329
a(I30356880
I1
tp1330
a(I18020825
I0
tp1331
a(I10666965
I1
tp1332
a(I15736503
I0
tp1333
a(I16291075
I1
tp1334
a(I36433001
I0
tp1335
a(I13523272
I2
tp1336
a(I37064962
I1
tp1337
a(I37624090
I2
tp1338
a(I12849213
I1
tp1339
a(I17703863
I0
tp1340
a(I19765962
I1
tp1341
a(I15400897
I0
tp1342
a(I3805664
I0
tp1343
a(I31281768
I2
tp1344
a(I6524697
I0
tp1345
a(I17925232
I0
tp1346
a(I6094039
I0
tp1347
a(I20435406
I3
tp1348
a(I13474207
I0
tp1349
a(I19985833
I0
tp1350
a(I19532288
I0
tp1351
a(I34516501
I0
tp1352
a(I17750801
I1
tp1353
a(I33736317
I1
tp1354
a(I14841239
I1
tp1355
a(I2289907
I1
tp1356
a(I14790098
I1
tp1357
a(I35238887
I3
tp1358
a(I15872394
I5
tp1359
a(I14366759
I1
tp1360
a(I11215684
I1
tp1361
a(I33939688
I0
tp1362
a(I35295861
I2
tp1363
a(I6295650
I1
tp1364
a(I25361410
I0
tp1365
a(I26929769
I4
tp1366
a(I11814210
I2
tp1367
a(I11117622
I0
tp1368
a(I36281485
I0
tp1369
a(I20049984
I0
tp1370
a(I11419308
I0
tp1371
a(I34005749
I1
tp1372
a(I34643471
I1
tp1373
a(I37084523
I1
tp1374
a(I26162762
I1
tp1375
a(I5081080
I1
tp1376
a(I22232282
I1
tp1377
a(I10240035
I0
tp1378
a(I13110356
I2
tp1379
a(I33939688
I7
tp1380
a(I7763635
I0
tp1381
a(I14479213
I1
tp1382
a(I20401247
I2
tp1383
a(I19998376
I1
tp1384
a(I27932305
I1
tp1385
a(I28483426
I0
tp1386
a(I17535389
I2
tp1387
a(I10993546
I1
tp1388
a(I4857837
I0
tp1389
a(I21746336
I0
tp1390
a(I5093557
I0
tp1391
a(I35041250
I1
tp1392
a(I28243845
I2
tp1393
a(I15758509
I1
tp1394
a(I34610639
I0
tp1395
a(I27473908
I0
tp1396
a(I29533346
I0
tp1397
a(I31831068
I1
tp1398
a(I34191191
I1
tp1399
a(I32943515
I2
tp1400
a(I16036991
I0
tp1401
a(I20551358
I0
tp1402
a(I3827025
I2
tp1403
a(I4434581
I1
tp1404
a(I11753269
I2
tp1405
a(I23166266
I2
tp1406
a(I9704624
I1
tp1407
a(I37303429
I0
tp1408
a(I9432630
I2
tp1409
a(I21302307
I3
tp1410
a(I13277973
I0
tp1411
a(I21352556
I0
tp1412
a(I22180392
I1
tp1413
a(I22348948
I1
tp1414
a(I16962915
I1
tp1415
a(I30030023
I3
tp1416
a(I32112171
I1
tp1417
a(I11852951
I1
tp1418
a(I26718516
I0
tp1419
a(I17163648
I1
tp1420
a(I35508881
I0
tp1421
a(I10196144
I0
tp1422
a(I31544792
I1
tp1423
a(I21640927
I0
tp1424
a(I25095284
I0
tp1425
a(I2651249
I1
tp1426
a(I6254626
I0
tp1427
a(I34876711
I0
tp1428
a(I8527731
I1
tp1429
a(I27817195
I0
tp1430
a(I5803133
I2
tp1431
a(I19835090
I1
tp1432
a(I30298547
I0
tp1433
a(I2922856
I3
tp1434
a(I26208027
I1
tp1435
a(I11097839
I0
tp1436
a(I21875568
I1
tp1437
a(I34221483
I1
tp1438
a(I24275420
I1
tp1439
a(I23892604
I0
tp1440
a(I28263926
I1
tp1441
a(I19748723
I1
tp1442
a(I20028832
I0
tp1443
a(I23151081
I1
tp1444
a(I36909436
I2
tp1445
a(I34232471
I0
tp1446
a(I14469652
I6
tp1447
a(I3053125
I0
tp1448
a(I17043777
I1
tp1449
a(I14211346
I0
tp1450
a(I35268549
I4
tp1451
a(I35640282
I0
tp1452
a(I11510950
I1
tp1453
a(I14442822
I0
tp1454
a(I8384688
I1
tp1455
a(I29716952
I2
tp1456
a(I19459274
I1
tp1457
a(I18651768
I1
tp1458
a(I8629046
I1
tp1459
a(I18749306
I2
tp1460
a(I17325149
I6
tp1461
a(I34722021
I4
tp1462
a(I35361258
I2
tp1463
a(I34604707
I0
tp1464
a(I22184025
I0
tp1465
a(I11912188
I3
tp1466
a(I29276354
I0
tp1467
a(I13840468
I6
tp1468
a(I30616479
I0
tp1469
a(I32633252
I0
tp1470
a(I35183616
I0
tp1471
a(I10121680
I2
tp1472
a(I11114638
I2
tp1473
a(I3550497
I0
tp1474
a(I18858779
I0
tp1475
a(I4761507
I2
tp1476
a(I30108652
I1
tp1477
a(I29489036
I0
tp1478
a(I23594298
I0
tp1479
a(I12050795
I2
tp1480
a(I36989059
I1
tp1481
a(I34218190
I1
tp1482
a(I26607450
I7
tp1483
a(I33085816
I0
tp1484
a(I11900470
I0
tp1485
a(I2695116
I3
tp1486
a(I28805092
I0
tp1487
a(I28219230
I1
tp1488
a(I33791862
I2
tp1489
a(I28371337
I1
tp1490
a(I18904109
I1
tp1491
a(I27326723
I0
tp1492
a(I12160776
I0
tp1493
a(I18320028
I1
tp1494
a(I21136618
I0
tp1495
a(I35840854
I0
tp1496
a(I22668248
I0
tp1497
a(I24207240
I1
tp1498
a(I10797333
I1
tp1499
a(I25570210
I1
tp1500
a(I15436509
I1
tp1501
a(I3005323
I1
tp1502
a(I33791094
I0
tp1503
a(I30522930
I1
tp1504
a(I14732938
I4
tp1505
a(I4841038
I4
tp1506
a(I16330159
I0
tp1507
a(I28068971
I3
tp1508
a(I18575984
I1
tp1509
a(I8306044
I0
tp1510
a(I22959571
I0
tp1511
a(I30392961
I0
tp1512
a(I30191802
I0
tp1513
a(I3296390
I0
tp1514
a(I13862099
I1
tp1515
a(I25687106
I4
tp1516
a(I34309419
I0
tp1517
a(I9288893
I2
tp1518
a(I32304479
I0
tp1519
a(I27521297
I0
tp1520
a(I2978700
I1
tp1521
a(I14540917
I1
tp1522
a(I23959544
I5
tp1523
a(I4257442
I0
tp1524
a(I6536396
I1
tp1525
a(I12730070
I0
tp1526
a(I15387808
I1
tp1527
a(I22228967
I1
tp1528
a(I4429428
I1
tp1529
a(I11436797
I2
tp1530
a(I1344697
I1
tp1531
a(I30205573
I0
tp1532
a(I24342739
I1
tp1533
a(I29598252
I0
tp1534
a(I30932071
I0
tp1535
a(I18749306
I1
tp1536
a(I14565788
I0
tp1537
a(I4459902
I1
tp1538
a(I10666965
I6
tp1539
a(I23828906
I0
tp1540
a(I33428932
I0
tp1541
a(I11227924
I2
tp1542
a(I2355791
I0
tp1543
a(I13789442
I0
tp1544
a(I16797418
I0
tp1545
a(I20783264
I1
tp1546
a(I37712305
I0
tp1547
a(I23963860
I1
tp1548
a(I12818621
I1
tp1549
a(I29113209
I0
tp1550
a(I18777437
I2
tp1551
a(I10109770
I1
tp1552
a(I938232
I1
tp1553
a(I18377746
I1
tp1554
a(I1070122
I2
tp1555
a(I16223233
I2
tp1556
a(I16914206
I0
tp1557
a(I8578252
I0
tp1558
a(I33108437
I2
tp1559
a(I16874590
I2
tp1560
a(I11215684
I3
tp1561
a(I20546039
I1
tp1562
a(I895876
I1
tp1563
a(I1712077
I0
tp1564
a(I21540219
I0
tp1565
a(I26313466
I1
tp1566
a(I12335438
I4
tp1567
a(I32095863
I0
tp1568
a(I33470158
I0
tp1569
a(I14400023
I1
tp1570
a(I19663813
I1
tp1571
a(I27399755
I0
tp1572
a(I20197566
I1
tp1573
a(I32697433
I4
tp1574
a(I3526673
I0
tp1575
a(I10477017
I0
tp1576
a(I32933497
I1
tp1577
a(I14849316
I2
tp1578
a(I24939702
I0
tp1579
a(I1069311
I1
tp1580
a(I8524475
I0
tp1581
a(I3317750
I0
tp1582
a(I33108437
I1
tp1583
a(I21950759
I0
tp1584
a(I5795541
I0
tp1585
a(I10121680
I4
tp1586
a(I22724852
I0
tp1587
a(I27554417
I2
tp1588
a(I26167223
I0
tp1589
a(I22668248
I2
tp1590
a(I1207740
I0
tp1591
a(I24633875
I0
tp1592
a(I12456897
I0
tp1593
a(I31231963
I0
tp1594
a(I6267954
I0
tp1595
a(I3675616
I0
tp1596
a(I576071
I0
tp1597
a(I22861123
I1
tp1598
a(I20197566
I8
tp1599
a(I12419421
I1
tp1600
a(I32849144
I2
tp1601
a(I16877276
I0
tp1602
a(I5479975
I2
tp1603
a(I35478088
I4
tp1604
a(I36535515
I0
tp1605
a(I29883190
I2
tp1606
a(I1822504
I1
tp1607
a(I15736503
I1
tp1608
a(I27304683
I3
tp1609
a(I24375773
I0
tp1610
a(I27689846
I1
tp1611
a(I22668248
I9
tp1612
a(I22668248
I7
tp1613
a(I14856663
I2
tp1614
a(I521270
I0
tp1615
a(I16887108
I1
tp1616
a(I15203058
I1
tp1617
a(I27004031
I1
tp1618
a(I4787104
I1
tp1619
a(I24438529
I3
tp1620
a(I29240487
I0
tp1621
a(I11480527
I3
tp1622
a(I9861297
I0
tp1623
a(I3827025
I1
tp1624
a(I10979035
I1
tp1625
a(I23470309
I0
tp1626
a(I30857779
I1
tp1627
a(I26001924
I0
tp1628
a(I36921158
I1
tp1629
a(I34031494
I3
tp1630
a(I34786699
I1
tp1631
a(I3805664
I1
tp1632
a(I31281768
I3
tp1633
a(I27789682
I3
tp1634
a(I17925232
I1
tp1635
a(I13595333
I1
tp1636
a(I14446303
I1
tp1637
a(I19532288
I1
tp1638
a(I17750801
I0
tp1639
a(I11833448
I0
tp1640
a(I15302356
I0
tp1641
a(I9394879
I4
tp1642
a(I14841239
I0
tp1643
a(I2289907
I0
tp1644
a(I21438881
I0
tp1645
a(I9218949
I2
tp1646
a(I35238887
I2
tp1647
a(I15872394
I2
tp1648
a(I15034144
I1
tp1649
a(I33939688
I1
tp1650
a(I4301603
I1
tp1651
a(I25361410
I1
tp1652
a(I26945528
I1
tp1653
a(I20049984
I1
tp1654
a(I30404402
I0
tp1655
a(I14286714
I1
tp1656
a(I23369574
I0
tp1657
a(I3819810
I1
tp1658
a(I5760020
I0
tp1659
a(I37084523
I0
tp1660
a(I7994408
I1
tp1661
a(I33648148
I2
tp1662
a(I35575481
I1
tp1663
a(I19866409
I4
tp1664
a(I34612343
I1
tp1665
a(I27571493
I1
tp1666
a(I27379264
I1
tp1667
a(I3426560
I0
tp1668
a(I12879550
I0
tp1669
a(I13110356
I3
tp1670
a(I21400367
I0
tp1671
a(I9630004
I0
tp1672
a(I8647675
I1
tp1673
a(I11033340
I0
tp1674
a(I17255338
I0
tp1675
a(I34610639
I1
tp1676
a(I18107553
I1
tp1677
a(I14479213
I0
tp1678
a(I22697790
I1
tp1679
a(I31643835
I1
tp1680
a(I28483426
I1
tp1681
a(I31273373
I1
tp1682
a(I2640048
I0
tp1683
a(I31273373
I0
tp1684
a(I30977821
I5
tp1685
a(I21746336
I1
tp1686
a(I11363669
I0
tp1687
a(I12815194
I0
tp1688
a(I26383863
I2
tp1689
a(I22622841
I2
tp1690
a(I14964462
I1
tp1691
a(I5282607
I1
tp1692
a(I30263295
I0
tp1693
a(I15758509
I0
tp1694
a(I3886340
I0
tp1695
a(I27473908
I1
tp1696
a(I32332145
I1
tp1697
a(I12419854
I1
tp1698
a(I9630859
I1
tp1699
a(I8001083
I2
tp1700
a(I13377997
I0
tp1701
a(I33087355
I0
tp1702
a(I9015870
I0
tp1703
a(I11753269
I1
tp1704
a(I29660006
I1
tp1705
a(I23166266
I3
tp1706
a(I27309001
I0
tp1707
a(I12823575
I1
tp1708
a(I9432630
I3
tp1709
a(I32962508
I2
tp1710
a(I10189129
I0
tp1711
a(I21352556
I1
tp1712
a(I17910415
I2
tp1713
a(I11762700
I0
tp1714
a(I20510051
I0
tp1715
a(I34876711
I1
tp1716
a(I3609687
I2
tp1717
a(I32112171
I0
tp1718
a(I36294617
I0
tp1719
a(I17073134
I0
tp1720
a(I5719384
I1
tp1721
a(I3821642
I0
tp1722
a(I26682614
I1
tp1723
a(I13678718
I0
tp1724
a(I25940181
I0
tp1725
a(I3482194
I2
tp1726
a(I3361768
I1
tp1727
a(I10196144
I1
tp1728
a(I6070894
I1
tp1729
a(I35361258
I1
tp1730
a(I29065148
I0
tp1731
a(I13840468
I0
tp1732
a(I22697790
I0
tp1733
a(I23507472
I1
tp1734
a(I27916519
I1
tp1735
a(I12248899
I1
tp1736
a(I18799810
I0
tp1737
a(I1154702
I1
tp1738
a(I29652394
I2
tp1739
a(I26682614
I0
tp1740
a(I32565311
I1
tp1741
a(I13173833
I1
tp1742
a(I8645254
I0
tp1743
a(I33346218
I0
tp1744
a(I24610143
I1
tp1745
a(I26208027
I0
tp1746
a(I36435813
I0
tp1747
a(I36741708
I0
tp1748
a(I8015482
I2
tp1749
a(I34221483
I0
tp1750
a(I27399755
I1
tp1751
a(I23892604
I1
tp1752
a(I31273373
I2
tp1753
a(I23803359
I0
tp1754
a(I22452123
I3
tp1755
a(I23151081
I0
tp1756
a(I14501440
I0
tp1757
a(I8128360
I1
tp1758
a(I17875720
I0
tp1759
a(I33831023
I0
tp1760
a(I11844855
I2
tp1761
a(I21313983
I2
tp1762
a(I11350686
I4
tp1763
a(I17043777
I0
tp1764
a(I14211346
I1
tp1765
a(I35268549
I3
tp1766
a(I20838921
I0
tp1767
a(I28679208
I0
tp1768
a(I31855759
I0
tp1769
a(I5292145
I1
tp1770
a(I30494810
I5
tp1771
a(I18651768
I2
tp1772
a(I14313834
I1
tp1773
a(I19837655
I0
tp1774
a(I5171809
I0
tp1775
a(I15117826
I6
tp1776
a(I27309001
I1
tp1777
a(I36330259
I1
tp1778
a(I7260488
I0
tp1779
a(I29276354
I1
tp1780
a(I23507472
I0
tp1781
a(I36377860
I2
tp1782
a(I20358637
I0
tp1783
a(I35183616
I1
tp1784
a(I35777522
I0
tp1785
a(I15420689
I0
tp1786
a(I22738933
I2
tp1787
a(I32277369
I0
tp1788
a(I15448705
I1
tp1789
a(I28544816
I0
tp1790
a(I2473843
I1
tp1791
a(I25687106
I6
tp1792
a(I23594298
I1
tp1793
a(I36989059
I0
tp1794
a(I37111927
I2
tp1795
a(I6836478
I1
tp1796
a(I5111728
I1
tp1797
a(I29759568
I0
tp1798
a(I19270491
I4
tp1799
a(I24310683
I2
tp1800
a(I4841038
I2
tp1801
a(I30906021
I2
tp1802
a(I9237650
I1
tp1803
a(I28278115
I2
tp1804
a(I24194784
I0
tp1805
a(I7905182
I0
tp1806
a(I12590682
I1
tp1807
a(I12160776
I1
tp1808
a(I13901809
I1
tp1809
a(I31478205
I0
tp1810
a(I19939624
I1
tp1811
a(I603504
I0
tp1812
a(I13474207
I1
tp1813
a(I18420123
I1
tp1814
a(I24207240
I2
tp1815
a(I6814563
I1
tp1816
a(I25687106
I1
tp1817
a(I22055558
I0
tp1818
a(I16053425
I2
tp1819
a(I14610658
I0
tp1820
a(I25543723
I1
tp1821
a(I19307842
I1
tp1822
a(I34508028
I0
tp1823
a(I20401247
I1
tp1824
a(I182130
I0
tp1825
a(I10025996
I0
tp1826
a(I28068971
I2
tp1827
a(I8256892
I1
tp1828
a(I37247507
I1
tp1829
a(I12063841
I2
tp1830
a(I2746331
I1
tp1831
a(I30191802
I1
tp1832
a(I16184493
I1
tp1833
a(I27251701
I1
tp1834
a(I34309419
I3
tp1835
a(I9288893
I1
tp1836
a(I1341505
I0
tp1837
a(I33149080
I0
tp1838
a(I7274514
I1
tp1839
a(I5606689
I3
tp1840
a(I14540917
I0
tp1841
a(I4257442
I1
tp1842
a(I5380843
I0
tp1843
a(I2473843
I2
tp1844
a(I22393469
I2
tp1845
a(I26906460
I0
tp1846
a(I12730070
I1
tp1847
a(I3005323
I0
tp1848
a(I9429371
I0
tp1849
a(I21281481
I1
tp1850
a(I4429428
I2
tp1851
a(I32288840
I0
tp1852
a(I20792891
I1
tp1853
a(I15237740
I1
tp1854
a(I23091177
I1
tp1855
a(I12463628
I0
tp1856
a(I35869713
I0
tp1857
a(I20250357
I2
tp1858
a(I5606689
I4
tp1859
a(I31444591
I1
tp1860
a(I35478088
I1
tp1861
a(I19163959
I1
tp1862
a(I33428932
I1
tp1863
a(I14636287
I1
tp1864
a(I8806028
I1
tp1865
a(I15616638
I0
tp1866
a(I8610517
I0
tp1867
a(I34031494
I4
tp1868
a(I13789442
I1
tp1869
a(I23552848
I0
tp1870
a(I14206236
I1
tp1871
a(I17113532
I0
tp1872
a(I34786699
I4
tp1873
a(I25652248
I0
tp1874
a(I36478669
I1
tp1875
a(I33372188
I1
tp1876
a(I14961787
I1
tp1877
a(I17890157
I2
tp1878
a(I22544486
I0
tp1879
a(I12818621
I0
tp1880
a(I9623187
I3
tp1881
a(I32697433
I2
tp1882
a(I18757944
I0
tp1883
a(I26227103
I0
tp1884
a(I24833153
I1
tp1885
a(I37685156
I0
tp1886
a(I11168749
I1
tp1887
a(I16914206
I1
tp1888
a(I8578252
I1
tp1889
a(I18747853
I1
tp1890
a(I36650818
I1
tp1891
a(I23470309
I1
tp1892
a(I4062845
I1
tp1893
a(I5393244
I1
tp1894
a(I12250195
I0
tp1895
a(I18404055
I7
tp1896
a(I22468717
I0
tp1897
a(I14675304
I2
tp1898
a(I30877040
I1
tp1899
a(I33273676
I0
tp1900
a(I12221037
I1
tp1901
a(I29782934
I1
tp1902
a(I19181164
I2
tp1903
a(I8046386
I3
tp1904
a(I2401396
I1
tp1905
a(I35903825
I1
tp1906
a(I10338000
I0
tp1907
a(I31086391
I0
tp1908
a(I14730469
I0
tp1909
a(I24939702
I1
tp1910
a(I10666965
I3
tp1911
a(I17558290
I1
tp1912
a(I29776360
I2
tp1913
a(I14374677
I1
tp1914
a(I13345583
I1
tp1915
a(I22668248
I3
tp1916
a(I29628590
I0
tp1917
a(I29932394
I1
tp1918
a(I32241284
I1
tp1919
a(I12783579
I3
tp1920
a(I3084672
I0
tp1921
a(I29619943
I0
tp1922
a(I19835090
I0
tp1923
a(I15414398
I2
tp1924
a(I12419421
I0
tp1925
a(I35574490
I2
tp1926
a(I33608191
I2
tp1927
a(I15964439
I1
tp1928
a(I7364969
I5
tp1929
a(I35478088
I5
tp1930
a(I29883190
I3
tp1931
a(I14730469
I1
tp1932
a(I27304683
I2
tp1933
a(I17340363
I1
tp1934
a(I23225721
I1
tp1935
a(I13406949
I0
tp1936
a(I30030023
I1
tp1937
a(I713960
I1
tp1938
a(I30652021
I1
tp1939
a(I29169309
I0
tp1940
a(I20954662
I0
tp1941
a(I22134638
I1
tp1942
a(I13183568
I0
tp1943
a(I1830015
I0
tp1944
a(I25839647
I1
tp1945
a(I18187989
I2
tp1946
a(I11480527
I2
tp1947
a(I28986618
I0
tp1948
a(I33451718
I1
tp1949
a(I13537347
I1
tp1950
a(I18415438
I1
tp1951
a(I12530027
I0
tp1952
a(I21835289
I0
tp1953
a(I34486588
I1
tp1954
a(I26494428
I0
tp1955
a(I17017125
I1
tp1956
a(I4773206
I1
tp1957
a(I14501440
I1
tp1958
a(I6680228
I0
tp1959
a(I16688990
I3
tp1960
a(I30211424
I1
tp1961
a(I34031494
I0
tp1962
a(I18885583
I1
tp1963
a(I26804962
I0
tp1964
a(I34875353
I1
tp1965
a(I32427391
I2
tp1966
a(I37009235
I0
tp1967
a(I11119197
I4
tp1968
a(I31281768
I4
tp1969
a(I30458856
I0
tp1970
a(I32615598
I1
tp1971
a(I20435406
I1
tp1972
a(I13595333
I0
tp1973
a(I14446303
I0
tp1974
a(I7994408
I0
tp1975
a(I19866409
I2
tp1976
a(I25076117
I2
tp1977
a(I4823208
I3
tp1978
a(I29318004
I0
tp1979
a(I1858559
I0
tp1980
a(I5943678
I1
tp1981
a(I5719384
I0
tp1982
a(I33939688
I2
tp1983
a(I35295861
I0
tp1984
a(I16507239
I1
tp1985
a(I26429966
I0
tp1986
a(I30843033
I0
tp1987
a(I37270805
I0
tp1988
a(I31533615
I1
tp1989
a(I15836482
I0
tp1990
a(I6418214
I2
tp1991
a(I19329816
I1
tp1992
a(I22872278
I1
tp1993
a(I363084
I2
tp1994
a(I6551214
I0
tp1995
a(I11419308
I2
tp1996
a(I6057352
I0
tp1997
a(I10787043
I1
tp1998
a(I5760020
I1
tp1999
a(I12251993
I1
tp2000
a(I27571493
I0
tp2001
a(I29645733
I1
tp2002
a(I9403894
I1
tp2003
a(I9755681
I1
tp2004
a(I32985768
I2
tp2005
a(I1074529
I3
tp2006
a(I8669703
I0
tp2007
a(I33437351
I1
tp2008
a(I33367569
I0
tp2009
a(I5182723
I1
tp2010
a(I36468687
I0
tp2011
a(I7557231
I1
tp2012
a(I11033340
I1
tp2013
a(I17255338
I1
tp2014
a(I18107553
I0
tp2015
a(I35150739
I1
tp2016
a(I31643835
I0
tp2017
a(I79789
I1
tp2018
a(I27166043
I1
tp2019
a(I17670284
I1
tp2020
a(I192220
I3
tp2021
a(I2640048
I1
tp2022
a(I10209706
I2
tp2023
a(I23151241
I0
tp2024
a(I12815194
I1
tp2025
a(I12063841
I1
tp2026
a(I20830315
I0
tp2027
a(I21280605
I1
tp2028
a(I21841623
I0
tp2029
a(I28243845
I0
tp2030
a(I30263295
I3
tp2031
a(I3886340
I1
tp2032
a(I22537662
I0
tp2033
a(I14168940
I0
tp2034
a(I32332145
I0
tp2035
a(I7246987
I0
tp2036
a(I5355585
I1
tp2037
a(I37691287
I1
tp2038
a(I11753269
I0
tp2039
a(I23166266
I0
tp2040
a(I21389431
I3
tp2041
a(I31143856
I0
tp2042
a(I28481148
I1
tp2043
a(I20637482
I1
tp2044
a(I19447701
I1
tp2045
a(I15743183
I0
tp2046
a(I9432630
I0
tp2047
a(I17810221
I1
tp2048
a(I19998376
I0
tp2049
a(I10025996
I1
tp2050
a(I20510051
I3
tp2051
a(I27512053
I1
tp2052
a(I19902526
I2
tp2053
a(I35700944
I0
tp2054
a(I28840985
I1
tp2055
a(I684106
I1
tp2056
a(I19356906
I0
tp2057
a(I5290418
I0
tp2058
a(I19053225
I1
tp2059
a(I10196144
I2
tp2060
a(I1979522
I2
tp2061
a(I21977220
I1
tp2062
a(I13054785
I3
tp2063
a(I24287463
I0
tp2064
a(I12085307
I0
tp2065
a(I13249903
I0
tp2066
a(I13545617
I1
tp2067
a(I18799810
I1
tp2068
a(I22184025
I2
tp2069
a(I9919278
I1
tp2070
a(I12151979
I1
tp2071
a(I33633660
I0
tp2072
a(I15448705
I0
tp2073
a(I20935221
I3
tp2074
a(I21270528
I1
tp2075
a(I13173833
I0
tp2076
a(I31722522
I1
tp2077
a(I36425557
I1
tp2078
a(I22055558
I1
tp2079
a(I14672688
I0
tp2080
a(I16426039
I1
tp2081
a(I16216129
I1
tp2082
a(I28082687
I1
tp2083
a(I31281768
I0
tp2084
a(I36510415
I0
tp2085
a(I19837655
I1
tp2086
a(I13054785
I4
tp2087
a(I17025457
I1
tp2088
a(I26728011
I0
tp2089
a(I1853433
I0
tp2090
a(I27855167
I2
tp2091
a(I22452123
I2
tp2092
a(I28129007
I2
tp2093
a(I15376335
I2
tp2094
a(I1858559
I1
tp2095
a(I34242338
I1
tp2096
a(I34712380
I1
tp2097
a(I31840220
I0
tp2098
a(I21832842
I0
tp2099
a(I289649
I0
tp2100
a(I20838921
I7
tp2101
a(I30239227
I0
tp2102
a(I20519532
I0
tp2103
a(I28679208
I1
tp2104
a(I18708680
I0
tp2105
a(I30494810
I2
tp2106
a(I18644056
I1
tp2107
a(I33020243
I0
tp2108
a(I34722021
I2
tp2109
a(I6688196
I0
tp2110
a(I29721968
I1
tp2111
a(I18920393
I0
tp2112
a(I18724492
I0
tp2113
a(I7260488
I1
tp2114
a(I28129007
I1
tp2115
a(I20304400
I1
tp2116
a(I36909436
I1
tp2117
a(I23096845
I0
tp2118
a(I16507239
I4
tp2119
a(I35647425
I1
tp2120
a(I34353369
I1
tp2121
a(I10389260
I1
tp2122
a(I11019847
I1
tp2123
a(I14965566
I2
tp2124
a(I37088208
I0
tp2125
a(I11114638
I0
tp2126
a(I18499562
I0
tp2127
a(I15264563
I1
tp2128
a(I25687106
I7
tp2129
a(I6031181
I1
tp2130
a(I33383829
I1
tp2131
a(I28397342
I0
tp2132
a(I26607450
I5
tp2133
a(I19752084
I1
tp2134
a(I13103114
I0
tp2135
a(I9419615
I1
tp2136
a(I33791862
I0
tp2137
a(I6404158
I0
tp2138
a(I13901809
I0
tp2139
a(I603504
I1
tp2140
a(I15117826
I1
tp2141
a(I13791170
I0
tp2142
a(I18420123
I0
tp2143
a(I4621932
I1
tp2144
a(I15150057
I1
tp2145
a(I6745525
I0
tp2146
a(I6814563
I0
tp2147
a(I32096616
I0
tp2148
a(I16053425
I1
tp2149
a(I11329936
I1
tp2150
a(I2563918
I1
tp2151
a(I2930768
I0
tp2152
a(I34508028
I1
tp2153
a(I8306044
I1
tp2154
a(I1362148
I1
tp2155
a(I23959544
I0
tp2156
a(I14732938
I2
tp2157
a(I10330898
I0
tp2158
a(I28068971
I5
tp2159
a(I24920949
I1
tp2160
a(I20551358
I2
tp2161
a(I20757884
I2
tp2162
a(I35391959
I2
tp2163
a(I32880727
I1
tp2164
a(I726582
I1
tp2165
a(I36057894
I0
tp2166
a(I28805092
I1
tp2167
a(I34309419
I2
tp2168
a(I9288893
I0
tp2169
a(I23807485
I2
tp2170
a(I33149080
I1
tp2171
a(I26711455
I0
tp2172
a(I10277115
I0
tp2173
a(I26381169
I0
tp2174
a(I5380843
I3
tp2175
a(I26906460
I1
tp2176
a(I29446361
I1
tp2177
a(I21281481
I0
tp2178
a(I970357
I2
tp2179
a(I31173730
I1
tp2180
a(I25547827
I2
tp2181
a(I15948208
I0
tp2182
a(I4971561
I1
tp2183
a(I23963860
I4
tp2184
atp2185
Rp2186
.