(lp0
(I6624152
I1
tp1
a(I28616651
I1
tp2
a(I20359968
I2
tp3
a(I12504976
I2
tp4
a(I5148790
I1
tp5
a(I17700964
I1
tp6
a(I23271192
I2
tp7
a(I20593215
I1
tp8
a(I22750555
I0
tp9
a(I21377990
I2
tp10
a(I35526501
I3
tp11
a(I29192826
I1
tp12
a(I3748356
I0
tp13
a(I35775207
I0
tp14
a(I3637419
I0
tp15
a(I32148804
I0
tp16
a(I35667931
I1
tp17
a(I10636203
I2
tp18
a(I27054358
I1
tp19
a(I15312953
I1
tp20
a(I32424555
I4
tp21
a(I16402525
I1
tp22
a(I30411388
I1
tp23
a(I13031989
I0
tp24
a(I33288420
I0
tp25
a(I5332701
I5
tp26
a(I11239815
I0
tp27
a(I645864
I0
tp28
a(I18540321
I2
tp29
a(I29192826
I2
tp30
a(I35220031
I0
tp31
a(I10645986
I1
tp32
a(I19665491
I2
tp33
a(I6941965
I2
tp34
a(I11388032
I0
tp35
a(I28606124
I1
tp36
a(I9538171
I1
tp37
a(I25649412
I0
tp38
a(I28020874
I0
tp39
a(I23866378
I0
tp40
a(I21871829
I0
tp41
a(I31137183
I0
tp42
a(I28431519
I3
tp43
a(I5332701
I2
tp44
a(I10040037
I2
tp45
a(I25690354
I3
tp46
a(I15062205
I2
tp47
a(I20593215
I4
tp48
a(I1389180
I3
tp49
a(I31149123
I0
tp50
a(I35208832
I1
tp51
a(I25996817
I1
tp52
a(I27027500
I2
tp53
a(I23575195
I1
tp54
a(I1060193
I3
tp55
a(I25277092
I0
tp56
a(I16123732
I2
tp57
a(I24915181
I2
tp58
a(I20431617
I2
tp59
a(I30559807
I0
tp60
a(I6367051
I1
tp61
a(I17809274
I2
tp62
a(I22961541
I1
tp63
a(I31502786
I1
tp64
a(I35952815
I4
tp65
a(I29785451
I1
tp66
a(I30242208
I2
tp67
a(I28257632
I1
tp68
a(I33607716
I0
tp69
a(I6406368
I0
tp70
a(I15304076
I1
tp71
a(I19618514
I4
tp72
a(I34300499
I0
tp73
a(I706755
I1
tp74
a(I36558005
I1
tp75
a(I6998245
I1
tp76
a(I29258758
I0
tp77
a(I29968046
I2
tp78
a(I20198951
I1
tp79
a(I29643161
I2
tp80
a(I9410760
I1
tp81
a(I31029467
I1
tp82
a(I28244029
I1
tp83
a(I17910014
I2
tp84
a(I22616944
I1
tp85
a(I14494101
I2
tp86
a(I32497161
I0
tp87
a(I28416559
I3
tp88
a(I12901066
I1
tp89
a(I28461458
I1
tp90
a(I26830752
I3
tp91
a(I28766133
I0
tp92
a(I16070219
I2
tp93
a(I33139927
I2
tp94
a(I682504
I0
tp95
a(I29867175
I0
tp96
a(I26427128
I2
tp97
a(I10156909
I2
tp98
a(I34598020
I0
tp99
a(I19844558
I0
tp100
a(I29974139
I0
tp101
a(I21377990
I1
tp102
a(I34079643
I1
tp103
a(I33003547
I0
tp104
a(I18040702
I2
tp105
a(I11140628
I2
tp106
a(I2534786
I2
tp107
a(I2882308
I0
tp108
a(I37262062
I0
tp109
a(I33223682
I0
tp110
a(I29392606
I1
tp111
a(I26871083
I3
tp112
a(I3788439
I0
tp113
a(I23039188
I1
tp114
a(I19882621
I5
tp115
a(I15795416
I0
tp116
a(I32480553
I1
tp117
a(I16218482
I0
tp118
a(I18802249
I3
tp119
a(I29600513
I0
tp120
a(I25467360
I3
tp121
a(I26983187
I4
tp122
a(I36572221
I0
tp123
a(I16233528
I0
tp124
a(I12923835
I0
tp125
a(I23323675
I0
tp126
a(I24269756
I1
tp127
a(I19382088
I0
tp128
a(I33519408
I1
tp129
a(I25141467
I0
tp130
a(I2983959
I1
tp131
a(I35734026
I1
tp132
a(I25728442
I0
tp133
a(I7786737
I0
tp134
a(I28198883
I1
tp135
a(I17504995
I1
tp136
a(I2654689
I1
tp137
a(I31498844
I0
tp138
a(I29356022
I2
tp139
a(I5103329
I0
tp140
a(I6046049
I0
tp141
a(I8405977
I1
tp142
a(I12329807
I0
tp143
a(I6998245
I0
tp144
a(I899138
I2
tp145
a(I25537262
I1
tp146
a(I24752712
I1
tp147
a(I18646076
I1
tp148
a(I35667931
I0
tp149
a(I37116967
I1
tp150
a(I6493681
I0
tp151
a(I31739074
I1
tp152
a(I1448820
I3
tp153
a(I26700006
I0
tp154
a(I27150664
I0
tp155
a(I27027500
I1
tp156
a(I14972601
I0
tp157
a(I27925861
I0
tp158
a(I28486550
I0
tp159
a(I35153942
I1
tp160
a(I11897977
I0
tp161
a(I29761118
I1
tp162
a(I18787830
I0
tp163
a(I20211031
I1
tp164
a(I25217124
I0
tp165
a(I7953623
I1
tp166
a(I21125897
I1
tp167
a(I8892307
I0
tp168
a(I17866724
I2
tp169
a(I34970283
I0
tp170
a(I22769503
I1
tp171
a(I35609991
I0
tp172
a(I21159782
I2
tp173
a(I29870041
I1
tp174
a(I37116967
I0
tp175
a(I26205922
I0
tp176
a(I10829302
I1
tp177
a(I25467360
I6
tp178
a(I26983187
I15
tp179
a(I21159782
I1
tp180
a(I2882308
I1
tp181
a(I29509781
I0
tp182
a(I24327683
I0
tp183
a(I23832259
I1
tp184
a(I8431654
I0
tp185
a(I6624152
I0
tp186
a(I8096798
I1
tp187
a(I36242061
I0
tp188
a(I6852394
I1
tp189
a(I8530203
I0
tp190
a(I19199869
I4
tp191
a(I29573963
I1
tp192
a(I35428388
I3
tp193
a(I8702772
I1
tp194
a(I33304356
I1
tp195
a(I19166610
I2
tp196
a(I13405223
I1
tp197
a(I645864
I2
tp198
a(I35252265
I2
tp199
a(I35952815
I5
tp200
a(I2857634
I1
tp201
a(I21439948
I5
tp202
a(I28104377
I1
tp203
a(I17270318
I2
tp204
a(I16773583
I1
tp205
a(I21111836
I0
tp206
a(I20821815
I1
tp207
a(I27665039
I0
tp208
a(I9671165
I0
tp209
a(I3234114
I1
tp210
a(I6316726
I3
tp211
a(I2082387
I3
tp212
a(I10112614
I2
tp213
a(I12014704
I1
tp214
a(I35318700
I1
tp215
a(I10040037
I0
tp216
a(I7086295
I0
tp217
a(I29224567
I0
tp218
a(I32935232
I1
tp219
a(I16057689
I0
tp220
a(I33203746
I0
tp221
a(I13562613
I2
tp222
a(I23699378
I0
tp223
a(I24787224
I6
tp224
a(I12986272
I1
tp225
a(I28823052
I0
tp226
a(I27746297
I0
tp227
a(I16659818
I1
tp228
a(I25923521
I2
tp229
a(I35431172
I2
tp230
a(I17972025
I1
tp231
a(I296499
I1
tp232
a(I30198481
I2
tp233
a(I19888255
I0
tp234
a(I37659598
I0
tp235
a(I7522721
I0
tp236
a(I22425626
I1
tp237
a(I34818228
I0
tp238
a(I36765952
I1
tp239
a(I27193884
I1
tp240
a(I11065100
I2
tp241
a(I25513929
I2
tp242
a(I32308382
I0
tp243
a(I10645986
I0
tp244
a(I27308840
I1
tp245
a(I30949202
I1
tp246
a(I22281406
I0
tp247
a(I34859683
I2
tp248
a(I18646076
I0
tp249
a(I9969684
I0
tp250
a(I26983187
I8
tp251
a(I4112561
I2
tp252
a(I10099326
I2
tp253
a(I17374553
I0
tp254
a(I21941657
I0
tp255
a(I35322452
I1
tp256
a(I21668606
I5
tp257
a(I4867037
I0
tp258
a(I21668606
I4
tp259
a(I7933596
I5
tp260
a(I10126668
I2
tp261
a(I23923658
I0
tp262
a(I28332217
I0
tp263
a(I35431172
I5
tp264
a(I2237624
I2
tp265
a(I37659598
I1
tp266
a(I34799167
I1
tp267
a(I37177688
I0
tp268
a(I19122988
I0
tp269
a(I20825173
I0
tp270
a(I22362010
I0
tp271
a(I21080357
I2
tp272
a(I35220031
I2
tp273
a(I13669642
I1
tp274
a(I33037416
I4
tp275
a(I11676649
I1
tp276
a(I34444319
I1
tp277
a(I1305532
I0
tp278
a(I20249149
I1
tp279
a(I13669642
I0
tp280
a(I32182116
I1
tp281
a(I37482313
I2
tp282
a(I25104929
I1
tp283
a(I32379895
I1
tp284
a(I37758227
I2
tp285
a(I22118136
I1
tp286
a(I20622240
I0
tp287
a(I32798908
I1
tp288
a(I23297197
I1
tp289
a(I23732057
I0
tp290
a(I7933596
I4
tp291
a(I9575384
I1
tp292
a(I19330415
I0
tp293
a(I20359968
I0
tp294
a(I32424555
I1
tp295
a(I22518000
I3
tp296
a(I31230972
I1
tp297
a(I32798908
I0
tp298
a(I2743712
I4
tp299
a(I37048689
I2
tp300
a(I8714744
I2
tp301
a(I22048792
I0
tp302
a(I27331006
I1
tp303
a(I28348485
I1
tp304
a(I24145957
I2
tp305
a(I37348050
I1
tp306
a(I24458430
I1
tp307
a(I10472907
I0
tp308
a(I13047895
I1
tp309
a(I31456902
I0
tp310
a(I706813
I1
tp311
a(I18787830
I3
tp312
a(I31498844
I1
tp313
a(I3947654
I0
tp314
a(I35300343
I1
tp315
a(I22394350
I1
tp316
a(I36408096
I0
tp317
a(I12102342
I1
tp318
a(I17486578
I2
tp319
a(I9761562
I1
tp320
a(I5771039
I2
tp321
a(I31619128
I0
tp322
a(I2286557
I1
tp323
a(I28267563
I3
tp324
a(I20990336
I0
tp325
a(I27551921
I2
tp326
a(I31847577
I2
tp327
a(I33201383
I1
tp328
a(I21208724
I1
tp329
a(I19330415
I1
tp330
a(I36935617
I5
tp331
a(I8422308
I1
tp332
a(I28267563
I2
tp333
a(I30443894
I1
tp334
a(I32802833
I1
tp335
a(I32910848
I1
tp336
a(I25002150
I2
tp337
a(I30272538
I6
tp338
a(I26059710
I1
tp339
a(I32946908
I1
tp340
a(I15418751
I3
tp341
a(I24748179
I1
tp342
a(I35840403
I1
tp343
a(I28754280
I2
tp344
a(I1938894
I1
tp345
a(I20224501
I2
tp346
a(I933612
I5
tp347
a(I19962586
I0
tp348
a(I26450673
I1
tp349
a(I15432775
I0
tp350
a(I20243683
I0
tp351
a(I3843017
I0
tp352
a(I1175208
I0
tp353
a(I29950856
I2
tp354
a(I24097930
I2
tp355
a(I9542738
I2
tp356
a(I18802563
I2
tp357
a(I35293171
I3
tp358
a(I25002150
I0
tp359
a(I34137572
I0
tp360
a(I15721679
I0
tp361
a(I23576318
I0
tp362
a(I18340475
I1
tp363
a(I31009455
I0
tp364
a(I26487617
I1
tp365
a(I9849828
I1
tp366
a(I37425477
I0
tp367
a(I33759539
I0
tp368
a(I3947654
I3
tp369
a(I19928482
I0
tp370
a(I10126668
I6
tp371
a(I6237378
I2
tp372
a(I15104415
I0
tp373
a(I14940338
I2
tp374
a(I22024409
I2
tp375
a(I11159668
I1
tp376
a(I17243403
I2
tp377
a(I35664103
I1
tp378
a(I32935232
I0
tp379
a(I34008175
I1
tp380
a(I2305115
I1
tp381
a(I9670866
I0
tp382
a(I19793156
I2
tp383
a(I28566041
I0
tp384
a(I18952977
I1
tp385
a(I9020831
I1
tp386
a(I18088496
I0
tp387
a(I21310549
I1
tp388
a(I35481842
I0
tp389
a(I23177075
I0
tp390
a(I14601544
I6
tp391
a(I27216950
I0
tp392
a(I11514277
I0
tp393
a(I32458370
I3
tp394
a(I17252056
I1
tp395
a(I22567247
I2
tp396
a(I4339273
I1
tp397
a(I6727491
I1
tp398
a(I35199556
I2
tp399
a(I14366713
I1
tp400
a(I36149707
I1
tp401
a(I4696418
I0
tp402
a(I28418901
I1
tp403
a(I32981875
I1
tp404
a(I28566041
I3
tp405
a(I21423213
I1
tp406
a(I36479374
I0
tp407
a(I32308382
I1
tp408
a(I20725343
I1
tp409
a(I21928814
I0
tp410
a(I2192658
I2
tp411
a(I19382088
I3
tp412
a(I28257632
I0
tp413
a(I37492239
I0
tp414
a(I14873181
I0
tp415
a(I19784235
I0
tp416
a(I15905215
I1
tp417
a(I28332217
I1
tp418
a(I31347715
I1
tp419
a(I27779615
I1
tp420
a(I10602071
I0
tp421
a(I37605612
I1
tp422
a(I34079643
I0
tp423
a(I33099417
I0
tp424
a(I23317342
I1
tp425
a(I18802249
I1
tp426
a(I28647371
I2
tp427
a(I27676866
I0
tp428
a(I30272538
I3
tp429
a(I28665356
I0
tp430
a(I30683301
I2
tp431
a(I7218865
I0
tp432
a(I5914627
I0
tp433
a(I17921455
I0
tp434
a(I26163563
I1
tp435
a(I3065624
I0
tp436
a(I26812595
I1
tp437
a(I22880882
I0
tp438
a(I37399461
I0
tp439
a(I31364390
I1
tp440
a(I30620595
I0
tp441
a(I19835824
I0
tp442
a(I35011168
I0
tp443
a(I37423445
I0
tp444
a(I33010861
I1
tp445
a(I13390315
I3
tp446
a(I26983187
I6
tp447
a(I35389648
I2
tp448
a(I33972303
I1
tp449
a(I21015447
I3
tp450
a(I2389846
I2
tp451
a(I3788439
I1
tp452
a(I5051795
I1
tp453
a(I31619128
I2
tp454
a(I35293171
I0
tp455
a(I31370701
I1
tp456
a(I24314839
I0
tp457
a(I32687664
I1
tp458
a(I37212307
I1
tp459
a(I29036344
I0
tp460
a(I21756477
I2
tp461
a(I36967883
I0
tp462
a(I33587404
I0
tp463
a(I18507244
I1
tp464
a(I24900064
I0
tp465
a(I5198116
I2
tp466
a(I3821957
I1
tp467
a(I21507319
I0
tp468
a(I29785451
I0
tp469
a(I28431519
I0
tp470
a(I36017497
I0
tp471
a(I36344619
I2
tp472
a(I20663162
I1
tp473
a(I10303797
I3
tp474
a(I14462993
I0
tp475
a(I28800634
I0
tp476
a(I31957215
I1
tp477
a(I30909414
I0
tp478
a(I23677258
I1
tp479
a(I28868384
I1
tp480
a(I18474538
I3
tp481
a(I22741040
I1
tp482
a(I8137056
I0
tp483
a(I25269476
I0
tp484
a(I36974140
I0
tp485
a(I17734781
I1
tp486
a(I36408096
I1
tp487
a(I9761554
I1
tp488
a(I22161088
I1
tp489
a(I10647449
I1
tp490
a(I22953550
I0
tp491
a(I25641980
I3
tp492
a(I30683301
I0
tp493
a(I25664682
I1
tp494
a(I31029467
I0
tp495
a(I34114554
I2
tp496
a(I23231840
I4
tp497
a(I17374553
I1
tp498
a(I34980059
I0
tp499
a(I12389570
I0
tp500
a(I24638781
I2
tp501
a(I27551521
I1
tp502
a(I36579996
I3
tp503
a(I7376019
I1
tp504
a(I36806340
I0
tp505
a(I35431172
I3
tp506
a(I7132861
I0
tp507
a(I37760124
I1
tp508
a(I29114975
I1
tp509
a(I15148202
I0
tp510
a(I28898735
I1
tp511
a(I27270532
I1
tp512
a(I34419926
I2
tp513
a(I36066726
I1
tp514
a(I3984539
I1
tp515
a(I21333339
I0
tp516
a(I28486550
I1
tp517
a(I13497170
I2
tp518
a(I17077403
I1
tp519
a(I25882275
I1
tp520
a(I15620039
I1
tp521
a(I29998052
I18
tp522
a(I4534486
I2
tp523
a(I1738633
I0
tp524
a(I20224501
I3
tp525
a(I30602088
I0
tp526
a(I26787410
I3
tp527
a(I15489749
I0
tp528
a(I19166610
I0
tp529
a(I13793694
I0
tp530
a(I23059398
I3
tp531
a(I36988306
I2
tp532
a(I34503246
I0
tp533
a(I2363954
I3
tp534
a(I36939122
I1
tp535
a(I32690945
I1
tp536
a(I29308274
I2
tp537
a(I32907015
I0
tp538
a(I35510590
I2
tp539
a(I16782291
I0
tp540
a(I27419345
I2
tp541
a(I34478011
I5
tp542
a(I34193415
I2
tp543
a(I16070219
I0
tp544
a(I18589821
I1
tp545
a(I9242450
I1
tp546
a(I30955735
I0
tp547
a(I13715594
I1
tp548
a(I26983187
I1
tp549
a(I6205592
I0
tp550
a(I23047215
I1
tp551
a(I23795777
I0
tp552
a(I10610592
I0
tp553
a(I27724543
I2
tp554
a(I22741040
I0
tp555
a(I21329988
I1
tp556
a(I34244726
I0
tp557
a(I7508774
I1
tp558
a(I33105265
I1
tp559
a(I21739450
I0
tp560
a(I22674166
I1
tp561
a(I956820
I0
tp562
a(I15401415
I1
tp563
a(I24787224
I1
tp564
a(I30242208
I11
tp565
a(I19368715
I0
tp566
a(I7933596
I1
tp567
a(I35469417
I2
tp568
a(I37256540
I0
tp569
a(I13407560
I0
tp570
a(I35633421
I2
tp571
a(I23718340
I3
tp572
a(I27914360
I1
tp573
a(I29643161
I0
tp574
a(I31462265
I0
tp575
a(I28443428
I1
tp576
a(I28510518
I0
tp577
a(I9232944
I2
tp578
a(I20622240
I2
tp579
a(I17762515
I2
tp580
a(I14720912
I0
tp581
a(I34478011
I10
tp582
a(I13936068
I1
tp583
a(I29573963
I0
tp584
a(I17559933
I0
tp585
a(I24004106
I0
tp586
a(I23047215
I0
tp587
a(I23025497
I0
tp588
a(I32346156
I1
tp589
a(I32975636
I1
tp590
a(I25255535
I1
tp591
a(I23642406
I0
tp592
a(I18682304
I0
tp593
a(I5472771
I1
tp594
a(I34016799
I1
tp595
a(I20661902
I1
tp596
a(I21588963
I0
tp597
a(I7172290
I1
tp598
a(I27773141
I1
tp599
a(I34073053
I0
tp600
a(I28067258
I1
tp601
a(I26240228
I0
tp602
a(I24746231
I1
tp603
a(I21817657
I2
tp604
a(I25537262
I3
tp605
a(I34521703
I0
tp606
a(I33105265
I3
tp607
a(I36282772
I2
tp608
a(I30909414
I1
tp609
a(I19936790
I0
tp610
a(I32026028
I1
tp611
a(I187273
I3
tp612
a(I36921573
I0
tp613
a(I11242667
I1
tp614
a(I32537153
I1
tp615
a(I35734026
I3
tp616
a(I27491988
I1
tp617
a(I34769801
I0
tp618
a(I30909414
I2
tp619
a(I7154171
I0
tp620
a(I19882621
I3
tp621
a(I5914627
I1
tp622
a(I10001301
I0
tp623
a(I36949277
I2
tp624
a(I33019600
I1
tp625
a(I32026028
I0
tp626
a(I36633059
I1
tp627
a(I36835793
I3
tp628
a(I1144702
I2
tp629
a(I7274521
I0
tp630
a(I28404183
I2
tp631
a(I34585582
I0
tp632
a(I33978569
I0
tp633
a(I2621549
I2
tp634
a(I25882275
I0
tp635
a(I32772190
I1
tp636
a(I12785573
I1
tp637
a(I28812868
I1
tp638
a(I28823052
I2
tp639
a(I13562613
I4
tp640
a(I35209114
I1
tp641
a(I26187054
I0
tp642
a(I17486578
I1
tp643
a(I35234823
I1
tp644
a(I25435908
I1
tp645
a(I21736784
I2
tp646
a(I10961378
I0
tp647
a(I31650674
I2
tp648
a(I33875238
I0
tp649
a(I37018019
I2
tp650
a(I12504976
I3
tp651
a(I24084817
I2
tp652
a(I28658817
I0
tp653
a(I37122210
I1
tp654
a(I25746147
I0
tp655
a(I16615630
I0
tp656
a(I4791080
I4
tp657
a(I5722767
I1
tp658
a(I20778951
I2
tp659
a(I34906286
I0
tp660
a(I5185944
I0
tp661
a(I14363016
I3
tp662
a(I36550795
I0
tp663
a(I15312953
I0
tp664
a(I3387691
I1
tp665
a(I25757650
I0
tp666
a(I15711845
I1
tp667
a(I14001382
I2
tp668
a(I35220031
I1
tp669
a(I27356890
I1
tp670
a(I31011179
I0
tp671
a(I25217124
I2
tp672
a(I4910789
I0
tp673
a(I29036344
I1
tp674
a(I20147593
I0
tp675
a(I17910359
I0
tp676
a(I25467360
I5
tp677
a(I34686485
I0
tp678
a(I31502786
I2
tp679
a(I2857634
I2
tp680
a(I20778951
I1
tp681
a(I34117408
I3
tp682
a(I26629789
I2
tp683
a(I6798490
I2
tp684
a(I34576433
I1
tp685
a(I8147559
I1
tp686
a(I17870242
I0
tp687
a(I17559933
I2
tp688
a(I12379529
I1
tp689
a(I28566041
I2
tp690
a(I17426202
I1
tp691
a(I34950064
I1
tp692
a(I27739381
I1
tp693
a(I3257619
I1
tp694
a(I7302316
I0
tp695
a(I14421133
I0
tp696
a(I13497170
I3
tp697
a(I22425626
I0
tp698
a(I26889734
I0
tp699
a(I17288571
I0
tp700
a(I28716265
I0
tp701
a(I27779615
I0
tp702
a(I36806340
I2
tp703
a(I14856385
I0
tp704
a(I5599022
I1
tp705
a(I28419477
I1
tp706
a(I3708418
I0
tp707
a(I12667537
I1
tp708
a(I21857875
I1
tp709
a(I3234114
I0
tp710
a(I34799167
I3
tp711
a(I25641980
I1
tp712
a(I25690354
I5
tp713
a(I33385238
I0
tp714
a(I33431816
I3
tp715
a(I33607716
I3
tp716
a(I18085030
I4
tp717
a(I33201383
I0
tp718
a(I17086278
I0
tp719
a(I21532471
I1
tp720
a(I973481
I3
tp721
a(I13983620
I2
tp722
a(I27159189
I0
tp723
a(I20359968
I1
tp724
a(I15398904
I3
tp725
a(I34301088
I0
tp726
a(I21332785
I2
tp727
a(I9242450
I0
tp728
a(I17534484
I2
tp729
a(I21111836
I3
tp730
a(I16689457
I1
tp731
a(I31498516
I1
tp732
a(I25457718
I3
tp733
a(I6976372
I1
tp734
a(I11611183
I1
tp735
a(I7471055
I1
tp736
a(I27857842
I0
tp737
a(I6540412
I2
tp738
a(I27491734
I0
tp739
a(I22328160
I1
tp740
a(I22591297
I0
tp741
a(I15425455
I1
tp742
a(I25002459
I1
tp743
a(I30904903
I0
tp744
a(I13103195
I0
tp745
a(I24144766
I1
tp746
a(I11984684
I1
tp747
a(I25744399
I2
tp748
a(I34137398
I1
tp749
a(I33613596
I1
tp750
a(I10429919
I2
tp751
a(I8948773
I1
tp752
a(I36436953
I2
tp753
a(I13539339
I0
tp754
a(I32792411
I1
tp755
a(I11939631
I2
tp756
a(I11102829
I1
tp757
a(I30727894
I2
tp758
a(I3083583
I0
tp759
a(I21212484
I1
tp760
a(I11984684
I2
tp761
a(I12379529
I0
tp762
a(I28767484
I1
tp763
a(I13098173
I3
tp764
a(I29935056
I1
tp765
a(I9364754
I2
tp766
a(I24024966
I2
tp767
a(I15425455
I0
tp768
a(I37088428
I0
tp769
a(I34773317
I1
tp770
a(I1060193
I2
tp771
a(I33069366
I4
tp772
a(I14720912
I2
tp773
a(I14710221
I0
tp774
a(I34914655
I4
tp775
a(I34478011
I4
tp776
a(I27885989
I1
tp777
a(I34576433
I0
tp778
a(I23046827
I0
tp779
a(I11944826
I0
tp780
a(I11691679
I4
tp781
a(I25277092
I1
tp782
a(I10263217
I0
tp783
a(I933612
I4
tp784
a(I25344576
I0
tp785
a(I11624362
I0
tp786
a(I11159668
I3
tp787
a(I23429426
I2
tp788
a(I11340765
I1
tp789
a(I3187961
I1
tp790
a(I24072567
I1
tp791
a(I28500718
I1
tp792
a(I22827317
I0
tp793
a(I35428388
I0
tp794
a(I21736784
I1
tp795
a(I9460992
I0
tp796
a(I26317418
I1
tp797
a(I19043923
I1
tp798
a(I30002261
I0
tp799
a(I28083576
I0
tp800
a(I12501761
I1
tp801
a(I28199359
I0
tp802
a(I24697061
I1
tp803
a(I34837194
I1
tp804
a(I897362
I0
tp805
a(I18802563
I3
tp806
a(I24941665
I0
tp807
a(I18921302
I0
tp808
a(I32687664
I0
tp809
a(I2363954
I1
tp810
a(I31499985
I0
tp811
a(I27551921
I0
tp812
a(I5726827
I0
tp813
a(I2305501
I0
tp814
a(I30170614
I2
tp815
a(I19716770
I1
tp816
a(I12231891
I1
tp817
a(I6540412
I1
tp818
a(I19179245
I2
tp819
a(I6220490
I1
tp820
a(I35840403
I0
tp821
a(I28431519
I5
tp822
a(I14622698
I1
tp823
a(I22591297
I1
tp824
a(I18772706
I0
tp825
a(I17687453
I2
tp826
a(I8017432
I1
tp827
a(I3145246
I0
tp828
a(I14601544
I1
tp829
a(I18919032
I0
tp830
a(I15062205
I1
tp831
a(I8249165
I0
tp832
a(I29327493
I0
tp833
a(I20720521
I0
tp834
a(I16110307
I1
tp835
a(I34082065
I1
tp836
a(I29356022
I1
tp837
a(I26871083
I6
tp838
a(I35805891
I2
tp839
a(I28754280
I1
tp840
a(I35293171
I2
tp841
a(I17065977
I0
tp842
a(I21857875
I0
tp843
a(I21959866
I2
tp844
a(I16391808
I2
tp845
a(I4534486
I1
tp846
a(I29799542
I1
tp847
a(I29527654
I1
tp848
a(I36835793
I0
tp849
a(I34141855
I0
tp850
a(I34008175
I2
tp851
a(I34193415
I1
tp852
a(I10507011
I1
tp853
a(I30414578
I0
tp854
a(I20062672
I1
tp855
a(I27960965
I0
tp856
a(I17504995
I0
tp857
a(I25493559
I1
tp858
a(I10993692
I1
tp859
a(I19926534
I1
tp860
a(I34206921
I0
tp861
a(I11242667
I0
tp862
a(I12713743
I0
tp863
a(I35952815
I1
tp864
a(I2389846
I0
tp865
a(I21314143
I0
tp866
a(I23626026
I3
tp867
a(I35199556
I1
tp868
a(I17252056
I0
tp869
a(I19199869
I1
tp870
a(I19784235
I1
tp871
a(I17288571
I2
tp872
a(I1783251
I0
tp873
a(I28059257
I1
tp874
a(I36935617
I2
tp875
a(I27064243
I0
tp876
a(I18854425
I2
tp877
a(I19728214
I1
tp878
a(I2470764
I0
tp879
a(I11313599
I1
tp880
a(I29514238
I0
tp881
a(I22953550
I4
tp882
a(I22509908
I1
tp883
a(I8948773
I2
tp884
a(I28687087
I2
tp885
a(I23648826
I0
tp886
a(I20316339
I0
tp887
a(I9364754
I1
tp888
a(I36364512
I0
tp889
a(I20063721
I0
tp890
a(I29351492
I1
tp891
a(I24728933
I1
tp892
a(I7953623
I0
tp893
a(I5678950
I1
tp894
a(I27674145
I0
tp895
a(I16367823
I1
tp896
a(I18233948
I1
tp897
a(I29318963
I1
tp898
a(I22362010
I1
tp899
a(I28104377
I3
tp900
a(I22221858
I0
tp901
a(I27823447
I0
tp902
a(I20892950
I2
tp903
a(I29509781
I2
tp904
a(I32077660
I2
tp905
a(I27827982
I3
tp906
a(I15009180
I2
tp907
a(I7132861
I2
tp908
a(I7741455
I2
tp909
a(I30053381
I1
tp910
a(I33354950
I1
tp911
a(I2389846
I1
tp912
a(I35787294
I2
tp913
a(I25141467
I1
tp914
a(I35252265
I3
tp915
a(I34244726
I1
tp916
a(I19522263
I0
tp917
a(I31665106
I0
tp918
a(I37212307
I0
tp919
a(I1123337
I1
tp920
a(I27857842
I1
tp921
a(I21712375
I3
tp922
a(I26716576
I1
tp923
a(I27733482
I1
tp924
a(I26871083
I1
tp925
a(I35232897
I0
tp926
a(I28566041
I1
tp927
a(I100210
I3
tp928
a(I4402383
I3
tp929
a(I465144
I1
tp930
a(I37340568
I0
tp931
a(I5743548
I1
tp932
a(I2777188
I1
tp933
a(I31665106
I1
tp934
a(I8419817
I1
tp935
a(I34030902
I2
tp936
a(I15516876
I2
tp937
a(I27257991
I0
tp938
a(I15459675
I1
tp939
a(I17478779
I1
tp940
a(I6071784
I0
tp941
a(I12573992
I1
tp942
a(I15926531
I0
tp943
a(I30329252
I1
tp944
a(I4659579
I0
tp945
a(I27773141
I0
tp946
a(I16107526
I2
tp947
a(I36923865
I1
tp948
a(I18556448
I0
tp949
a(I13382774
I0
tp950
a(I16090146
I1
tp951
a(I20725343
I0
tp952
a(I36524627
I0
tp953
a(I28486144
I1
tp954
a(I13953964
I3
tp955
a(I22520948
I1
tp956
a(I31759951
I1
tp957
a(I10127973
I1
tp958
a(I37482313
I4
tp959
a(I20484918
I1
tp960
a(I17866724
I1
tp961
a(I4554767
I2
tp962
a(I23866378
I2
tp963
a(I33518124
I0
tp964
a(I23231840
I3
tp965
a(I19369025
I1
tp966
a(I14076207
I0
tp967
a(I19665491
I1
tp968
a(I36794619
I0
tp969
a(I19882621
I4
tp970
a(I24285311
I0
tp971
a(I36495903
I1
tp972
a(I12309693
I2
tp973
a(I6154424
I1
tp974
a(I6102103
I0
tp975
a(I20892950
I1
tp976
a(I28356451
I0
tp977
a(I37501075
I0
tp978
a(I22959268
I1
tp979
a(I24084817
I0
tp980
a(I33021916
I0
tp981
a(I30904903
I2
tp982
a(I35774261
I1
tp983
a(I8422308
I2
tp984
a(I9416934
I0
tp985
a(I17103701
I2
tp986
a(I30242208
I5
tp987
a(I3068839
I1
tp988
a(I29968046
I1
tp989
a(I7490408
I1
tp990
a(I11313599
I0
tp991
a(I32308382
I4
tp992
a(I26563683
I1
tp993
a(I25641980
I0
tp994
a(I37348050
I0
tp995
a(I29867175
I2
tp996
a(I36988306
I3
tp997
a(I35252265
I5
tp998
a(I28267563
I0
tp999
a(I20445470
I1
tp1000
a(I25269476
I1
tp1001
a(I11065100
I0
tp1002
a(I20484918
I0
tp1003
a(I15014326
I0
tp1004
a(I24752712
I0
tp1005
a(I17598881
I2
tp1006
a(I23614259
I0
tp1007
a(I16056574
I0
tp1008
a(I11984684
I0
tp1009
a(I3955571
I0
tp1010
a(I24418864
I1
tp1011
a(I9487389
I0
tp1012
a(I34672986
I1
tp1013
a(I16233528
I2
tp1014
a(I31011179
I1
tp1015
a(I28208430
I0
tp1016
a(I35281863
I1
tp1017
a(I9091299
I2
tp1018
a(I15580917
I0
tp1019
a(I36436065
I0
tp1020
a(I23402150
I1
tp1021
a(I36282772
I1
tp1022
a(I33948731
I0
tp1023
a(I30196224
I2
tp1024
a(I18540321
I5
tp1025
a(I23039664
I1
tp1026
a(I28059257
I0
tp1027
a(I21343401
I1
tp1028
a(I2192658
I1
tp1029
a(I29538559
I1
tp1030
a(I22214949
I0
tp1031
a(I34016799
I0
tp1032
a(I3738269
I3
tp1033
a(I36226959
I0
tp1034
a(I30214489
I1
tp1035
a(I10255972
I1
tp1036
a(I8685308
I0
tp1037
a(I27024392
I0
tp1038
a(I30329252
I2
tp1039
a(I9416947
I0
tp1040
a(I33319664
I0
tp1041
a(I10610592
I2
tp1042
a(I10843549
I1
tp1043
a(I30272538
I0
tp1044
a(I32821122
I1
tp1045
a(I27947419
I3
tp1046
a(I20695432
I0
tp1047
a(I17334702
I0
tp1048
a(I23699378
I2
tp1049
a(I37659598
I2
tp1050
a(I21039772
I1
tp1051
a(I25024087
I0
tp1052
a(I34030902
I1
tp1053
a(I27103165
I3
tp1054
a(I30447975
I1
tp1055
a(I24481614
I1
tp1056
a(I8937566
I2
tp1057
a(I24042596
I0
tp1058
a(I9504638
I0
tp1059
a(I31367608
I0
tp1060
a(I23429968
I0
tp1061
a(I7490408
I0
tp1062
a(I2005234
I2
tp1063
a(I2726839
I1
tp1064
a(I11255432
I0
tp1065
a(I32700996
I1
tp1066
a(I28823170
I1
tp1067
a(I28387109
I0
tp1068
a(I22893271
I0
tp1069
a(I23555829
I2
tp1070
a(I34193415
I3
tp1071
a(I33972303
I0
tp1072
a(I26163563
I0
tp1073
a(I22134243
I1
tp1074
a(I34598020
I1
tp1075
a(I24918515
I1
tp1076
a(I12501761
I2
tp1077
a(I17795362
I1
tp1078
a(I12329807
I2
tp1079
a(I33270413
I0
tp1080
a(I555344
I0
tp1081
a(I12494277
I1
tp1082
a(I12674794
I1
tp1083
a(I24285311
I1
tp1084
a(I30960440
I1
tp1085
a(I28280507
I1
tp1086
a(I33869234
I0
tp1087
a(I19199869
I5
tp1088
a(I9950474
I2
tp1089
a(I17486578
I0
tp1090
a(I26871083
I0
tp1091
a(I9394051
I1
tp1092
a(I33575575
I1
tp1093
a(I27585173
I1
tp1094
a(I12824228
I2
tp1095
a(I16522362
I0
tp1096
a(I16530710
I0
tp1097
a(I25344576
I1
tp1098
a(I18540321
I4
tp1099
a(I21332785
I1
tp1100
a(I12309693
I1
tp1101
a(I9364754
I0
tp1102
a(I31920197
I2
tp1103
a(I36050713
I1
tp1104
a(I24065575
I2
tp1105
a(I26683175
I3
tp1106
a(I16983863
I0
tp1107
a(I28617958
I2
tp1108
a(I21298191
I0
tp1109
a(I12824228
I1
tp1110
a(I34950064
I0
tp1111
a(I36242061
I1
tp1112
a(I28364676
I2
tp1113
a(I20695432
I1
tp1114
a(I16965782
I1
tp1115
a(I34871024
I1
tp1116
a(I23100704
I0
tp1117
a(I22484903
I4
tp1118
a(I9410760
I0
tp1119
a(I20857188
I2
tp1120
a(I31193239
I0
tp1121
a(I21332785
I0
tp1122
a(I37685718
I1
tp1123
a(I13405223
I0
tp1124
a(I31124914
I2
tp1125
a(I19666356
I3
tp1126
a(I34452644
I1
tp1127
a(I11340765
I0
tp1128
a(I33099417
I2
tp1129
a(I12081704
I3
tp1130
a(I33928554
I1
tp1131
a(I2716894
I3
tp1132
a(I34141855
I4
tp1133
a(I31347715
I0
tp1134
a(I22668427
I5
tp1135
a(I15711845
I0
tp1136
a(I33296707
I2
tp1137
a(I3862310
I1
tp1138
a(I3458542
I1
tp1139
a(I19649791
I1
tp1140
a(I22328160
I0
tp1141
a(I35199556
I3
tp1142
a(I4936507
I0
tp1143
a(I17911276
I1
tp1144
a(I25744399
I0
tp1145
a(I11444222
I1
tp1146
a(I25664682
I0
tp1147
a(I35526501
I2
tp1148
a(I23837696
I0
tp1149
a(I20339462
I0
tp1150
a(I36170581
I1
tp1151
a(I2382905
I0
tp1152
a(I19928482
I1
tp1153
a(I22394350
I0
tp1154
a(I29258758
I1
tp1155
a(I25690354
I2
tp1156
a(I14808945
I1
tp1157
a(I26187054
I1
tp1158
a(I19529825
I2
tp1159
a(I28795561
I2
tp1160
a(I31011565
I1
tp1161
a(I25100105
I2
tp1162
a(I31078921
I0
tp1163
a(I28002993
I0
tp1164
a(I11065100
I1
tp1165
a(I23312803
I0
tp1166
a(I5678136
I1
tp1167
a(I35104102
I0
tp1168
a(I10154289
I1
tp1169
a(I24495059
I2
tp1170
a(I10993692
I2
tp1171
a(I5743548
I0
tp1172
a(I36554940
I1
tp1173
a(I35083540
I1
tp1174
a(I26889734
I1
tp1175
a(I17260358
I2
tp1176
a(I13953964
I0
tp1177
a(I5722767
I2
tp1178
a(I19241166
I3
tp1179
a(I37219219
I0
tp1180
a(I23795777
I1
tp1181
a(I30960440
I2
tp1182
a(I18111031
I0
tp1183
a(I18802563
I0
tp1184
a(I28036818
I1
tp1185
a(I25838448
I1
tp1186
a(I12667537
I0
tp1187
a(I26562487
I1
tp1188
a(I27491988
I2
tp1189
a(I18086307
I0
tp1190
a(I31847577
I1
tp1191
a(I20024490
I0
tp1192
a(I25959543
I0
tp1193
a(I21343401
I2
tp1194
a(I3083583
I1
tp1195
a(I26911426
I1
tp1196
a(I29744665
I0
tp1197
a(I9668867
I0
tp1198
a(I7471055
I0
tp1199
a(I17426202
I3
tp1200
a(I32623285
I0
tp1201
a(I25859572
I0
tp1202
a(I36949277
I0
tp1203
a(I9504638
I2
tp1204
a(I35346425
I0
tp1205
a(I14783438
I1
tp1206
a(I544923
I1
tp1207
a(I14711669
I1
tp1208
a(I36921573
I2
tp1209
a(I24269756
I3
tp1210
a(I6493681
I1
tp1211
a(I23648826
I1
tp1212
a(I29910229
I1
tp1213
a(I17211188
I1
tp1214
a(I29153930
I0
tp1215
a(I2126551
I0
tp1216
a(I36017497
I1
tp1217
a(I23833763
I1
tp1218
a(I36949277
I4
tp1219
a(I35493086
I1
tp1220
a(I31869890
I0
tp1221
a(I35322452
I0
tp1222
a(I23059398
I1
tp1223
a(I12081704
I1
tp1224
a(I36785204
I1
tp1225
a(I34672986
I0
tp1226
a(I33759539
I1
tp1227
a(I2192658
I3
tp1228
a(I23732057
I1
tp1229
a(I4951751
I1
tp1230
a(I24833045
I1
tp1231
a(I6154424
I0
tp1232
a(I31387880
I1
tp1233
a(I20593215
I3
tp1234
a(I3458542
I4
tp1235
a(I28812868
I0
tp1236
a(I15398904
I1
tp1237
a(I28654483
I0
tp1238
a(I32700996
I0
tp1239
a(I30506746
I1
tp1240
a(I8470539
I0
tp1241
a(I31146021
I2
tp1242
a(I35966940
I1
tp1243
a(I5464504
I1
tp1244
a(I25932166
I0
tp1245
a(I14720912
I4
tp1246
a(I19221073
I1
tp1247
a(I28823052
I3
tp1248
a(I12494930
I1
tp1249
a(I28795561
I0
tp1250
a(I14383937
I1
tp1251
a(I10108368
I3
tp1252
a(I9456233
I0
tp1253
a(I3862310
I0
tp1254
a(I34683678
I2
tp1255
a(I8937566
I0
tp1256
a(I16522362
I1
tp1257
a(I21208724
I2
tp1258
a(I33875238
I1
tp1259
a(I31146021
I3
tp1260
a(I24195234
I1
tp1261
a(I24642669
I0
tp1262
a(I28467688
I1
tp1263
a(I34769801
I2
tp1264
a(I18049531
I0
tp1265
a(I24084817
I1
tp1266
a(I25690354
I6
tp1267
a(I19303429
I0
tp1268
a(I34271014
I1
tp1269
a(I8096798
I0
tp1270
a(I11805535
I0
tp1271
a(I36799190
I0
tp1272
a(I18386302
I0
tp1273
a(I23733922
I1
tp1274
a(I2743712
I0
tp1275
a(I26826838
I0
tp1276
a(I4201562
I3
tp1277
a(I19534230
I1
tp1278
a(I16773583
I0
tp1279
a(I9020831
I0
tp1280
a(I10881852
I1
tp1281
a(I2363954
I0
tp1282
a(I5472771
I0
tp1283
a(I2203351
I0
tp1284
a(I33972303
I2
tp1285
a(I11624362
I1
tp1286
a(I27265939
I0
tp1287
a(I14508570
I0
tp1288
a(I26897708
I0
tp1289
a(I26511109
I1
tp1290
a(I18802563
I1
tp1291
a(I34141855
I1
tp1292
a(I24172896
I1
tp1293
a(I32018206
I3
tp1294
a(I30795450
I1
tp1295
a(I14601544
I4
tp1296
a(I34400455
I1
tp1297
a(I18141698
I0
tp1298
a(I24465953
I1
tp1299
a(I21097039
I0
tp1300
a(I17368930
I1
tp1301
a(I29033262
I1
tp1302
a(I34468751
I0
tp1303
a(I16659818
I0
tp1304
a(I30443894
I0
tp1305
a(I36364188
I0
tp1306
a(I34799167
I2
tp1307
a(I3277047
I1
tp1308
a(I18839875
I1
tp1309
a(I20212171
I1
tp1310
a(I7877282
I0
tp1311
a(I9969684
I3
tp1312
a(I14837231
I1
tp1313
a(I17958069
I0
tp1314
a(I27139744
I0
tp1315
a(I23297197
I0
tp1316
a(I33139927
I3
tp1317
a(I30002261
I2
tp1318
a(I18679264
I3
tp1319
a(I31124914
I3
tp1320
a(I21211756
I1
tp1321
a(I14363016
I1
tp1322
a(I4797704
I0
tp1323
a(I33144460
I1
tp1324
a(I31562534
I0
tp1325
a(I30068271
I2
tp1326
a(I29947844
I0
tp1327
a(I29195983
I1
tp1328
a(I24747996
I2
tp1329
a(I13701374
I1
tp1330
a(I2534786
I0
tp1331
a(I37119314
I0
tp1332
a(I5678136
I0
tp1333
a(I29238534
I1
tp1334
a(I13416327
I1
tp1335
a(I18507736
I1
tp1336
a(I5470210
I2
tp1337
a(I17471682
I1
tp1338
a(I14285049
I1
tp1339
a(I37397296
I2
tp1340
a(I20211031
I0
tp1341
a(I25690778
I1
tp1342
a(I9538171
I0
tp1343
a(I26286980
I0
tp1344
a(I4660250
I1
tp1345
a(I24465953
I0
tp1346
a(I36041797
I1
tp1347
a(I22668427
I0
tp1348
a(I8405977
I0
tp1349
a(I34769801
I1
tp1350
a(I36967883
I1
tp1351
a(I21892080
I1
tp1352
a(I23177075
I1
tp1353
a(I29112610
I1
tp1354
a(I22484903
I0
tp1355
a(I13416327
I0
tp1356
a(I11668603
I3
tp1357
a(I21668606
I1
tp1358
a(I23046827
I1
tp1359
a(I12744136
I1
tp1360
a(I25705612
I4
tp1361
a(I18062466
I2
tp1362
a(I13471083
I0
tp1363
a(I31556782
I1
tp1364
a(I31842707
I1
tp1365
a(I30578068
I0
tp1366
a(I18325280
I0
tp1367
a(I17659626
I0
tp1368
a(I6762695
I0
tp1369
a(I22484903
I2
tp1370
a(I5599022
I0
tp1371
a(I28387109
I3
tp1372
a(I4975563
I1
tp1373
a(I5629242
I1
tp1374
a(I21039772
I0
tp1375
a(I18938302
I2
tp1376
a(I26983187
I10
tp1377
a(I31419156
I1
tp1378
a(I27031053
I0
tp1379
a(I31892559
I1
tp1380
a(I36798227
I3
tp1381
a(I12494277
I0
tp1382
a(I4936507
I1
tp1383
a(I35293171
I4
tp1384
a(I34478011
I1
tp1385
a(I30076583
I0
tp1386
a(I35254886
I0
tp1387
a(I7407934
I1
tp1388
a(I508657
I4
tp1389
a(I22576924
I0
tp1390
a(I9857382
I1
tp1391
a(I15820788
I1
tp1392
a(I26787410
I1
tp1393
a(I37682284
I1
tp1394
a(I8652136
I0
tp1395
a(I20295134
I0
tp1396
a(I34959948
I0
tp1397
a(I33711511
I1
tp1398
a(I14001382
I0
tp1399
a(I13031989
I1
tp1400
a(I31021283
I1
tp1401
a(I22083378
I1
tp1402
a(I28076006
I1
tp1403
a(I296055
I0
tp1404
a(I17811168
I4
tp1405
a(I15905215
I0
tp1406
a(I35061363
I0
tp1407
a(I24674723
I1
tp1408
a(I14891190
I0
tp1409
a(I25104929
I2
tp1410
a(I25025291
I0
tp1411
a(I14258317
I1
tp1412
a(I24327683
I1
tp1413
a(I8685308
I1
tp1414
a(I11576779
I0
tp1415
a(I28596212
I1
tp1416
a(I5909816
I0
tp1417
a(I22346807
I0
tp1418
a(I2964751
I0
tp1419
a(I24243929
I2
tp1420
a(I21756477
I1
tp1421
a(I35608326
I1
tp1422
a(I5761617
I2
tp1423
a(I13882808
I1
tp1424
a(I36950503
I0
tp1425
a(I34793225
I1
tp1426
a(I20990336
I2
tp1427
a(I32792411
I2
tp1428
a(I15971308
I0
tp1429
a(I26126880
I0
tp1430
a(I36753799
I0
tp1431
a(I29395674
I1
tp1432
a(I32975636
I0
tp1433
a(I11040604
I1
tp1434
a(I25024087
I2
tp1435
a(I20224501
I0
tp1436
a(I33970546
I1
tp1437
a(I36785204
I0
tp1438
a(I28083576
I1
tp1439
a(I36364512
I2
tp1440
a(I13695181
I1
tp1441
a(I20846235
I1
tp1442
a(I9706041
I1
tp1443
a(I30406324
I1
tp1444
a(I33139927
I0
tp1445
a(I34155132
I0
tp1446
a(I32262334
I1
tp1447
a(I9017260
I1
tp1448
a(I14211597
I1
tp1449
a(I5930036
I0
tp1450
a(I14837231
I0
tp1451
a(I24144766
I0
tp1452
a(I22024409
I3
tp1453
a(I34452644
I3
tp1454
a(I28176483
I0
tp1455
a(I6798490
I0
tp1456
a(I30506746
I0
tp1457
a(I4868900
I2
tp1458
a(I25002459
I2
tp1459
a(I31572425
I1
tp1460
a(I23231840
I6
tp1461
a(I37417157
I0
tp1462
a(I17870242
I1
tp1463
a(I36849151
I0
tp1464
a(I15326069
I0
tp1465
a(I36445193
I0
tp1466
a(I12184015
I0
tp1467
a(I3102098
I4
tp1468
a(I20431617
I4
tp1469
a(I21959866
I1
tp1470
a(I22534983
I0
tp1471
a(I29041324
I1
tp1472
a(I20825173
I6
tp1473
a(I34371807
I0
tp1474
a(I8530203
I1
tp1475
a(I30683325
I1
tp1476
a(I37258152
I0
tp1477
a(I24438325
I3
tp1478
a(I29356022
I0
tp1479
a(I36445193
I1
tp1480
a(I34546949
I0
tp1481
a(I17163234
I1
tp1482
a(I35720330
I3
tp1483
a(I36336637
I1
tp1484
a(I25047254
I3
tp1485
a(I34824864
I0
tp1486
a(I20959022
I0
tp1487
a(I26205922
I2
tp1488
a(I20062684
I0
tp1489
a(I35952815
I2
tp1490
a(I8019287
I2
tp1491
a(I18082130
I0
tp1492
a(I18765094
I0
tp1493
a(I324214
I1
tp1494
a(I10429919
I1
tp1495
a(I5947137
I2
tp1496
a(I35488781
I0
tp1497
a(I34686485
I1
tp1498
a(I31392017
I1
tp1499
a(I7376019
I0
tp1500
a(I22534983
I1
tp1501
a(I35164333
I0
tp1502
a(I16421050
I2
tp1503
a(I30242208
I7
tp1504
a(I35781083
I2
tp1505
a(I9542738
I4
tp1506
a(I19274492
I1
tp1507
a(I33711511
I2
tp1508
a(I28076006
I0
tp1509
a(I31419156
I0
tp1510
a(I18679264
I2
tp1511
a(I3254713
I1
tp1512
a(I6566642
I1
tp1513
a(I10099326
I3
tp1514
a(I21820700
I0
tp1515
a(I27255080
I0
tp1516
a(I34959948
I1
tp1517
a(I27302220
I0
tp1518
a(I21223269
I1
tp1519
a(I21125897
I0
tp1520
a(I25705612
I0
tp1521
a(I31617530
I2
tp1522
a(I21439948
I2
tp1523
a(I27270532
I0
tp1524
a(I17478779
I0
tp1525
a(I36935617
I3
tp1526
a(I18589821
I0
tp1527
a(I31393692
I4
tp1528
a(I33607716
I5
tp1529
a(I9950474
I3
tp1530
a(I30909414
I3
tp1531
a(I35431172
I0
tp1532
a(I3038661
I1
tp1533
a(I33569374
I0
tp1534
a(I35609991
I1
tp1535
a(I29998052
I10
tp1536
a(I15183718
I1
tp1537
a(I18114415
I1
tp1538
a(I22657498
I0
tp1539
a(I17809274
I3
tp1540
a(I20582840
I0
tp1541
a(I14686212
I1
tp1542
a(I2148119
I0
tp1543
a(I9465236
I1
tp1544
a(I16143648
I1
tp1545
a(I31828240
I0
tp1546
a(I27615872
I0
tp1547
a(I24772845
I0
tp1548
a(I22462728
I1
tp1549
a(I4201562
I2
tp1550
a(I11676649
I0
tp1551
a(I2397295
I0
tp1552
a(I4397859
I2
tp1553
a(I37246418
I1
tp1554
a(I23866378
I1
tp1555
a(I37758227
I4
tp1556
a(I37365033
I0
tp1557
a(I29481485
I0
tp1558
a(I10843549
I0
tp1559
a(I30578068
I1
tp1560
a(I24747191
I0
tp1561
a(I8072755
I0
tp1562
a(I10507011
I0
tp1563
a(I32921049
I1
tp1564
a(I34445707
I0
tp1565
a(I21439948
I3
tp1566
a(I36579996
I5
tp1567
a(I35119291
I0
tp1568
a(I30507442
I2
tp1569
a(I10460286
I1
tp1570
a(I26871083
I5
tp1571
a(I31978879
I0
tp1572
a(I27665039
I1
tp1573
a(I20224501
I4
tp1574
a(I33347648
I1
tp1575
a(I35787294
I1
tp1576
a(I7681301
I1
tp1577
a(I24896943
I0
tp1578
a(I10500834
I1
tp1579
a(I36579996
I2
tp1580
a(I31202918
I2
tp1581
a(I19596424
I1
tp1582
a(I34683678
I1
tp1583
a(I28677840
I3
tp1584
a(I29308274
I1
tp1585
a(I15326069
I1
tp1586
a(I26205922
I3
tp1587
a(I19079040
I0
tp1588
a(I22384398
I1
tp1589
a(I8780912
I3
tp1590
a(I36950503
I1
tp1591
a(I36409213
I1
tp1592
a(I36804141
I2
tp1593
a(I24584784
I0
tp1594
a(I25705612
I5
tp1595
a(I33270388
I1
tp1596
a(I7835030
I1
tp1597
a(I8892307
I1
tp1598
a(I32935585
I1
tp1599
a(I6798490
I1
tp1600
a(I10586471
I0
tp1601
a(I34146679
I1
tp1602
a(I29703388
I0
tp1603
a(I29870041
I0
tp1604
a(I8714744
I3
tp1605
a(I25649412
I2
tp1606
a(I22897195
I1
tp1607
a(I21298821
I0
tp1608
a(I13047895
I2
tp1609
a(I35208832
I0
tp1610
a(I121025
I1
tp1611
a(I34871024
I0
tp1612
a(I2012611
I0
tp1613
a(I3208076
I0
tp1614
a(I37444512
I1
tp1615
a(I34777323
I0
tp1616
a(I30196224
I0
tp1617
a(I34585582
I1
tp1618
a(I18608160
I0
tp1619
a(I26922284
I4
tp1620
a(I7821265
I0
tp1621
a(I17471682
I0
tp1622
a(I5999241
I2
tp1623
a(I20445672
I3
tp1624
a(I20672238
I3
tp1625
a(I17774547
I0
tp1626
a(I28059257
I3
tp1627
a(I20234453
I0
tp1628
a(I35631192
I0
tp1629
a(I6253617
I0
tp1630
a(I14154851
I2
tp1631
a(I10683659
I1
tp1632
a(I22741040
I3
tp1633
a(I8180404
I1
tp1634
a(I19964345
I1
tp1635
a(I9969684
I1
tp1636
a(I11939631
I0
tp1637
a(I24638781
I3
tp1638
a(I25859572
I2
tp1639
a(I6316726
I1
tp1640
a(I29998052
I0
tp1641
a(I35595836
I0
tp1642
a(I10920180
I2
tp1643
a(I33477811
I0
tp1644
a(I17077403
I2
tp1645
a(I30667382
I1
tp1646
a(I27491988
I0
tp1647
a(I32896987
I4
tp1648
a(I582723
I1
tp1649
a(I37106934
I1
tp1650
a(I29998052
I4
tp1651
a(I11269104
I0
tp1652
a(I25541651
I0
tp1653
a(I1470453
I1
tp1654
a(I22024409
I1
tp1655
a(I27032670
I0
tp1656
a(I19666356
I2
tp1657
a(I8780912
I5
tp1658
a(I2237624
I1
tp1659
a(I25002150
I1
tp1660
a(I27605834
I1
tp1661
a(I34374393
I1
tp1662
a(I35580801
I1
tp1663
a(I27855146
I1
tp1664
a(I17958069
I2
tp1665
a(I37482313
I1
tp1666
a(I36845683
I0
tp1667
a(I7927670
I2
tp1668
a(I27739381
I0
tp1669
a(I9419848
I2
tp1670
a(I15238389
I0
tp1671
a(I27805919
I2
tp1672
a(I18281342
I1
tp1673
a(I13983620
I0
tp1674
a(I20593215
I5
tp1675
a(I24072567
I0
tp1676
a(I30904903
I1
tp1677
a(I22856566
I0
tp1678
a(I23388668
I0
tp1679
a(I11382536
I1
tp1680
a(I20023209
I0
tp1681
a(I36242061
I4
tp1682
a(I24495452
I1
tp1683
a(I17711212
I0
tp1684
a(I15516876
I0
tp1685
a(I30229104
I2
tp1686
a(I2777188
I0
tp1687
a(I13793694
I1
tp1688
a(I26511109
I0
tp1689
a(I19844558
I2
tp1690
a(I2939050
I0
tp1691
a(I36799190
I2
tp1692
a(I20789412
I1
tp1693
a(I15398904
I0
tp1694
a(I899138
I0
tp1695
a(I4219843
I0
tp1696
a(I4416013
I4
tp1697
a(I6669828
I1
tp1698
a(I8087485
I1
tp1699
a(I35580801
I0
tp1700
a(I30727894
I3
tp1701
a(I18839875
I0
tp1702
a(I20977408
I0
tp1703
a(I31562534
I2
tp1704
a(I29998052
I5
tp1705
a(I35489107
I3
tp1706
a(I17086278
I1
tp1707
a(I25467360
I7
tp1708
a(I24084817
I6
tp1709
a(I30909414
I5
tp1710
a(I29998052
I16
tp1711
a(I17462994
I2
tp1712
a(I27139744
I2
tp1713
a(I27551521
I0
tp1714
a(I36672440
I2
tp1715
a(I32719686
I1
tp1716
a(I15892598
I1
tp1717
a(I30777540
I1
tp1718
a(I34069642
I1
tp1719
a(I34079643
I2
tp1720
a(I21343401
I0
tp1721
a(I35108136
I0
tp1722
a(I37417157
I2
tp1723
a(I3738269
I1
tp1724
a(I10963952
I0
tp1725
a(I21736784
I3
tp1726
a(I27032670
I1
tp1727
a(I8329204
I1
tp1728
a(I19179245
I0
tp1729
a(I7586936
I1
tp1730
a(I21538859
I1
tp1731
a(I32946908
I3
tp1732
a(I20024490
I1
tp1733
a(I26969526
I0
tp1734
a(I35489107
I4
tp1735
a(I23626026
I2
tp1736
a(I18540321
I1
tp1737
a(I9950474
I0
tp1738
a(I33140945
I3
tp1739
a(I4201562
I0
tp1740
a(I16689117
I3
tp1741
a(I33203746
I1
tp1742
a(I19031953
I1
tp1743
a(I31404238
I2
tp1744
a(I29365357
I0
tp1745
a(I12986272
I0
tp1746
a(I31124914
I1
tp1747
a(I2286557
I2
tp1748
a(I20846235
I2
tp1749
a(I17307474
I1
tp1750
a(I18289871
I0
tp1751
a(I18016779
I1
tp1752
a(I9542738
I5
tp1753
a(I22346807
I1
tp1754
a(I21111836
I4
tp1755
a(I8950809
I1
tp1756
a(I36949277
I5
tp1757
a(I20445470
I2
tp1758
a(I23114734
I1
tp1759
a(I29721519
I1
tp1760
a(I29112610
I0
tp1761
a(I31392017
I0
tp1762
a(I100210
I1
tp1763
a(I15401415
I0
tp1764
a(I6102103
I1
tp1765
a(I1470453
I0
tp1766
a(I9950474
I1
tp1767
a(I14677341
I2
tp1768
a(I25932166
I1
tp1769
a(I23460155
I1
tp1770
a(I35707475
I1
tp1771
a(I21212484
I3
tp1772
a(I17636790
I0
tp1773
a(I9091299
I1
tp1774
a(I7700545
I0
tp1775
a(I20959022
I2
tp1776
a(I31370701
I0
tp1777
a(I897362
I1
tp1778
a(I22214949
I2
tp1779
a(I10636203
I1
tp1780
a(I29392606
I2
tp1781
a(I19923464
I0
tp1782
a(I25946008
I1
tp1783
a(I16397116
I1
tp1784
a(I29600513
I1
tp1785
a(I36495903
I0
tp1786
a(I23429968
I1
tp1787
a(I29643161
I1
tp1788
a(I15456166
I0
tp1789
a(I36241474
I1
tp1790
a(I37425477
I2
tp1791
a(I9575384
I0
tp1792
a(I36804586
I0
tp1793
a(I22384398
I0
tp1794
a(I5808970
I1
tp1795
a(I17270318
I0
tp1796
a(I8302519
I1
tp1797
a(I20052327
I0
tp1798
a(I34569966
I2
tp1799
a(I10126668
I1
tp1800
a(I11488877
I0
tp1801
a(I31630708
I0
tp1802
a(I36086075
I0
tp1803
a(I21808905
I0
tp1804
a(I12081704
I7
tp1805
a(I31364390
I0
tp1806
a(I32792411
I0
tp1807
a(I11198718
I1
tp1808
a(I10154289
I0
tp1809
a(I21919877
I0
tp1810
a(I18802249
I2
tp1811
a(I29761118
I2
tp1812
a(I7501557
I0
tp1813
a(I35293171
I1
tp1814
a(I26700006
I1
tp1815
a(I31630753
I1
tp1816
a(I37113173
I0
tp1817
a(I1767565
I1
tp1818
a(I35306419
I0
tp1819
a(I25859572
I1
tp1820
a(I31078921
I1
tp1821
a(I30242208
I4
tp1822
a(I30801180
I1
tp1823
a(I6235146
I2
tp1824
a(I24772845
I1
tp1825
a(I24172896
I0
tp1826
a(I27178829
I1
tp1827
a(I33099417
I1
tp1828
a(I28404183
I0
tp1829
a(I34569966
I3
tp1830
a(I14622698
I3
tp1831
a(I27327513
I0
tp1832
a(I19461747
I1
tp1833
a(I25435908
I3
tp1834
a(I19274492
I0
tp1835
a(I25959543
I1
tp1836
a(I21212484
I0
tp1837
a(I17103701
I3
tp1838
a(I36549666
I0
tp1839
a(I18062466
I3
tp1840
a(I6687619
I0
tp1841
a(I19382088
I1
tp1842
a(I29950856
I0
tp1843
a(I29998052
I3
tp1844
a(I30507442
I0
tp1845
a(I23718340
I0
tp1846
a(I870652
I0
tp1847
a(I21111836
I1
tp1848
a(I36923865
I2
tp1849
a(I28416678
I1
tp1850
a(I23246125
I0
tp1851
a(I26277322
I2
tp1852
a(I35656186
I2
tp1853
a(I17811168
I1
tp1854
a(I15459675
I0
tp1855
a(I17972025
I0
tp1856
a(I15721679
I3
tp1857
a(I35373082
I0
tp1858
a(I26427128
I1
tp1859
a(I23231840
I1
tp1860
a(I19079040
I1
tp1861
a(I31567882
I1
tp1862
a(I9787427
I2
tp1863
a(I6406368
I1
tp1864
a(I14692029
I2
tp1865
a(I11668603
I6
tp1866
a(I19562863
I2
tp1867
a(I30068271
I3
tp1868
a(I11078122
I2
tp1869
a(I32981875
I3
tp1870
a(I35580801
I2
tp1871
a(I10303797
I1
tp1872
a(I31562641
I0
tp1873
a(I35890697
I1
tp1874
a(I2922769
I1
tp1875
a(I33928554
I0
tp1876
a(I17471682
I4
tp1877
a(I26787410
I0
tp1878
a(I33733189
I1
tp1879
a(I34793225
I0
tp1880
a(I37340568
I1
tp1881
a(I11159668
I2
tp1882
a(I21736784
I4
tp1883
a(I23224696
I1
tp1884
a(I30528673
I1
tp1885
a(I28647371
I3
tp1886
a(I36459148
I1
tp1887
a(I3038661
I0
tp1888
a(I2034584
I0
tp1889
a(I34600056
I2
tp1890
a(I30180241
I3
tp1891
a(I33575575
I0
tp1892
a(I33252350
I1
tp1893
a(I17368930
I2
tp1894
a(I30528673
I0
tp1895
a(I2983959
I3
tp1896
a(I15283478
I1
tp1897
a(I31149123
I2
tp1898
a(I10156909
I1
tp1899
a(I28907503
I1
tp1900
a(I35656186
I1
tp1901
a(I13390315
I0
tp1902
a(I11519787
I1
tp1903
a(I3576512
I0
tp1904
a(I19317766
I0
tp1905
a(I5447428
I1
tp1906
a(I30242208
I3
tp1907
a(I27419345
I1
tp1908
a(I31841487
I1
tp1909
a(I22693260
I0
tp1910
a(I12972595
I1
tp1911
a(I24127569
I1
tp1912
a(I18673420
I2
tp1913
a(I14421630
I0
tp1914
a(I22384398
I3
tp1915
a(I9542738
I3
tp1916
a(I15510367
I1
tp1917
a(I4416013
I0
tp1918
a(I29318963
I0
tp1919
a(I21073086
I1
tp1920
a(I36779891
I0
tp1921
a(I11830474
I2
tp1922
a(I17778394
I0
tp1923
a(I10108368
I0
tp1924
a(I33857555
I0
tp1925
a(I31704411
I3
tp1926
a(I18590658
I0
tp1927
a(I25746147
I1
tp1928
a(I18608160
I1
tp1929
a(I17058504
I0
tp1930
a(I28658817
I2
tp1931
a(I37119071
I2
tp1932
a(I33341000
I0
tp1933
a(I15066913
I0
tp1934
a(I33811240
I0
tp1935
a(I5332701
I0
tp1936
a(I23206062
I1
tp1937
a(I19431099
I1
tp1938
a(I24780464
I0
tp1939
a(I16070219
I1
tp1940
a(I32174535
I1
tp1941
a(I28855043
I0
tp1942
a(I29799542
I0
tp1943
a(I22161088
I0
tp1944
a(I5532498
I1
tp1945
a(I29910229
I0
tp1946
a(I31630708
I1
tp1947
a(I5947137
I0
tp1948
a(I36579996
I4
tp1949
a(I682504
I1
tp1950
a(I5901653
I1
tp1951
a(I35913509
I1
tp1952
a(I20825173
I4
tp1953
a(I35234823
I0
tp1954
a(I29083478
I0
tp1955
a(I15329797
I0
tp1956
a(I31149123
I1
tp1957
a(I12496531
I0
tp1958
a(I15104415
I1
tp1959
a(I35322452
I3
tp1960
a(I16661101
I1
tp1961
a(I3843017
I1
tp1962
a(I35596269
I2
tp1963
a(I32231491
I1
tp1964
a(I17486578
I3
tp1965
a(I12573992
I3
tp1966
a(I2572099
I0
tp1967
a(I6566642
I0
tp1968
a(I20531168
I1
tp1969
a(I31654215
I1
tp1970
a(I16402525
I0
tp1971
a(I26321557
I2
tp1972
a(I17254599
I0
tp1973
a(I35781083
I0
tp1974
a(I20224501
I5
tp1975
a(I37018019
I0
tp1976
a(I10255972
I0
tp1977
a(I3955571
I1
tp1978
a(I35668472
I1
tp1979
a(I34563454
I0
tp1980
a(I15089310
I2
tp1981
a(I34982928
I1
tp1982
a(I18765094
I1
tp1983
a(I9394051
I0
tp1984
a(I27007260
I1
tp1985
a(I25765631
I0
tp1986
a(I34146928
I0
tp1987
a(I10429919
I3
tp1988
a(I18919032
I1
tp1989
a(I28104377
I0
tp1990
a(I34503246
I1
tp1991
a(I25538578
I0
tp1992
a(I29384588
I1
tp1993
a(I20337561
I1
tp1994
a(I6046049
I1
tp1995
a(I2305501
I2
tp1996
a(I5198116
I0
tp1997
a(I4201562
I4
tp1998
a(I33069366
I0
tp1999
a(I19917545
I2
tp2000
a(I22616944
I0
tp2001
a(I31105362
I0
tp2002
a(I11832984
I0
tp2003
a(I32077660
I1
tp2004
a(I11830474
I1
tp2005
a(I7172290
I2
tp2006
a(I1042751
I0
tp2007
a(I33371558
I1
tp2008
a(I4797704
I1
tp2009
a(I18086307
I2
tp2010
a(I9017260
I0
tp2011
a(I35197854
I1
tp2012
a(I5761617
I3
tp2013
a(I25538578
I1
tp2014
a(I14363016
I4
tp2015
a(I4402383
I2
tp2016
a(I33795081
I0
tp2017
a(I27747712
I1
tp2018
a(I15815999
I0
tp2019
a(I28072914
I2
tp2020
a(I31892559
I0
tp2021
a(I31739074
I0
tp2022
a(I33270388
I0
tp2023
a(I16750376
I0
tp2024
a(I19297410
I2
tp2025
a(I34556645
I2
tp2026
a(I36579996
I1
tp2027
a(I17243403
I0
tp2028
a(I37758227
I3
tp2029
a(I28002993
I1
tp2030
a(I35867650
I0
tp2031
a(I19297410
I1
tp2032
a(I33928554
I7
tp2033
a(I36794619
I1
tp2034
a(I16897609
I0
tp2035
a(I31912253
I3
tp2036
a(I25480433
I1
tp2037
a(I16218482
I1
tp2038
a(I16367823
I0
tp2039
a(I7537439
I1
tp2040
a(I25244751
I0
tp2041
a(I35300343
I0
tp2042
a(I25838448
I0
tp2043
a(I18250516
I0
tp2044
a(I26498794
I0
tp2045
a(I1423251
I0
tp2046
a(I2534786
I1
tp2047
a(I11691679
I1
tp2048
a(I30507442
I4
tp2049
a(I22520948
I0
tp2050
a(I20198951
I0
tp2051
a(I9950474
I4
tp2052
a(I36459148
I0
tp2053
a(I35208997
I0
tp2054
a(I10342939
I0
tp2055
a(I8345190
I1
tp2056
a(I23733922
I0
tp2057
a(I4631601
I1
tp2058
a(I34930630
I1
tp2059
a(I7171140
I1
tp2060
a(I6235146
I0
tp2061
a(I24004106
I1
tp2062
a(I29744665
I1
tp2063
a(I5930036
I2
tp2064
a(I36835793
I4
tp2065
a(I33948731
I1
tp2066
a(I32148804
I1
tp2067
a(I31009455
I1
tp2068
a(I24325232
I1
tp2069
a(I15793715
I1
tp2070
a(I2717086
I0
tp2071
a(I36923865
I0
tp2072
a(I16615630
I2
tp2073
a(I37760124
I2
tp2074
a(I18157559
I0
tp2075
a(I5276837
I3
tp2076
a(I23918947
I0
tp2077
a(I6762695
I1
tp2078
a(I18921302
I1
tp2079
a(I17163234
I0
tp2080
a(I32981875
I0
tp2081
a(I29910229
I2
tp2082
a(I2363954
I2
tp2083
a(I21314143
I2
tp2084
a(I11345160
I0
tp2085
a(I25024087
I1
tp2086
a(I28255693
I2
tp2087
a(I36364512
I3
tp2088
a(I34066053
I1
tp2089
a(I24127569
I0
tp2090
a(I27884051
I1
tp2091
a(I31137766
I0
tp2092
a(I12175964
I0
tp2093
a(I36524627
I1
tp2094
a(I1822934
I2
tp2095
a(I17167297
I0
tp2096
a(I24191793
I1
tp2097
a(I34452644
I4
tp2098
a(I2005759
I1
tp2099
a(I18474538
I5
tp2100
a(I16689117
I0
tp2101
a(I15688462
I2
tp2102
a(I30268750
I0
tp2103
a(I21125897
I2
tp2104
a(I29195983
I0
tp2105
a(I31635818
I1
tp2106
a(I5530857
I3
tp2107
a(I23795777
I2
tp2108
a(I28823170
I2
tp2109
a(I33401529
I0
tp2110
a(I6235146
I1
tp2111
a(I34936864
I0
tp2112
a(I36071592
I0
tp2113
a(I17911276
I2
tp2114
a(I1767565
I2
tp2115
a(I35318700
I2
tp2116
a(I35619038
I4
tp2117
a(I26911426
I0
tp2118
a(I10636203
I3
tp2119
a(I26983187
I11
tp2120
a(I10920180
I0
tp2121
a(I25480433
I0
tp2122
a(I19793156
I1
tp2123
a(I21941657
I1
tp2124
a(I23961648
I1
tp2125
a(I23833763
I2
tp2126
a(I3575359
I0
tp2127
a(I12059634
I0
tp2128
a(I20470749
I2
tp2129
a(I14421133
I1
tp2130
a(I36041797
I0
tp2131
a(I16143648
I2
tp2132
a(I28654483
I1
tp2133
a(I34117408
I0
tp2134
a(I26265015
I1
tp2135
a(I26871083
I7
tp2136
a(I2575672
I0
tp2137
a(I22696168
I0
tp2138
a(I2964751
I1
tp2139
a(I34428730
I0
tp2140
a(I14601544
I3
tp2141
a(I15635341
I0
tp2142
a(I19618514
I2
tp2143
a(I2726839
I0
tp2144
a(I34124733
I1
tp2145
a(I682504
I2
tp2146
a(I4112561
I0
tp2147
a(I2470764
I1
tp2148
a(I34799167
I4
tp2149
a(I29087010
I0
tp2150
a(I17203403
I0
tp2151
a(I359903
I1
tp2152
a(I33270413
I2
tp2153
a(I15062205
I0
tp2154
a(I26725669
I1
tp2155
a(I6316726
I0
tp2156
a(I17270318
I1
tp2157
a(I7096090
I0
tp2158
a(I28431519
I2
tp2159
a(I7886024
I1
tp2160
a(I30447975
I0
tp2161
a(I10108070
I0
tp2162
a(I19894715
I1
tp2163
a(I11314980
I1
tp2164
a(I37048689
I1
tp2165
a(I9416934
I2
tp2166
a(I31105362
I2
tp2167
a(I30272538
I2
tp2168
a(I26222720
I0
tp2169
a(I27007260
I0
tp2170
a(I11140628
I0
tp2171
a(I17687453
I1
tp2172
a(I15510367
I5
tp2173
a(I21906759
I1
tp2174
a(I19926534
I0
tp2175
a(I34845096
I0
tp2176
a(I34931548
I2
tp2177
a(I21217108
I1
tp2178
a(I33431816
I0
tp2179
a(I8249165
I1
tp2180
a(I2337285
I0
tp2181
a(I28755798
I0
tp2182
a(I29527654
I0
tp2183
a(I10805846
I2
tp2184
a(I32403846
I0
tp2185
a(I37397296
I3
tp2186
a(I35611992
I1
tp2187
a(I21896326
I0
tp2188
a(I15820788
I2
tp2189
a(I31105362
I3
tp2190
a(I7537439
I0
tp2191
a(I10870736
I0
tp2192
a(I28755798
I1
tp2193
a(I9630668
I1
tp2194
a(I7933596
I7
tp2195
a(I187273
I1
tp2196
a(I32659345
I2
tp2197
a(I15329797
I1
tp2198
a(I10870736
I1
tp2199
a(I3375374
I0
tp2200
a(I18472262
I0
tp2201
a(I30133281
I2
tp2202
a(I12744136
I0
tp2203
a(I33037416
I0
tp2204
a(I29497029
I0
tp2205
a(I33927174
I0
tp2206
a(I9706041
I2
tp2207
a(I1933784
I1
tp2208
a(I35619038
I1
tp2209
a(I35774261
I2
tp2210
a(I31021283
I0
tp2211
a(I22674166
I2
tp2212
a(I5286022
I1
tp2213
a(I20622240
I3
tp2214
a(I18787830
I1
tp2215
a(I32316244
I0
tp2216
a(I31105362
I1
tp2217
a(I10156909
I0
tp2218
a(I36949277
I6
tp2219
a(I4659579
I1
tp2220
a(I34556645
I0
tp2221
a(I35720330
I1
tp2222
a(I10920180
I1
tp2223
a(I1423251
I1
tp2224
a(I25690354
I8
tp2225
a(I37482313
I3
tp2226
a(I17637244
I1
tp2227
a(I2621549
I1
tp2228
a(I14383937
I0
tp2229
a(I33578676
I0
tp2230
a(I12494930
I0
tp2231
a(I22518000
I0
tp2232
a(I34141855
I3
tp2233
a(I28348838
I1
tp2234
a(I5300387
I1
tp2235
a(I32902648
I1
tp2236
a(I7463941
I1
tp2237
a(I19330415
I2
tp2238
a(I8671702
I1
tp2239
a(I9575384
I2
tp2240
a(I34638457
I0
tp2241
a(I28187921
I0
tp2242
a(I2305115
I0
tp2243
a(I22694038
I0
tp2244
a(I5464504
I0
tp2245
a(I28486144
I0
tp2246
a(I31335460
I0
tp2247
a(I36597386
I1
tp2248
a(I11939631
I1
tp2249
a(I37079175
I2
tp2250
a(I13374028
I0
tp2251
a(I27914360
I2
tp2252
a(I29114133
I1
tp2253
a(I17799504
I0
tp2254
a(I33587404
I1
tp2255
a(I21588963
I1
tp2256
a(I36144303
I0
tp2257
a(I33607716
I2
tp2258
a(I23310630
I3
tp2259
a(I37425477
I3
tp2260
a(I10048069
I1
tp2261
a(I2305501
I1
tp2262
a(I3637419
I1
tp2263
a(I18114415
I3
tp2264
a(I30909414
I7
tp2265
a(I25690778
I0
tp2266
a(I23231840
I0
tp2267
a(I31889359
I1
tp2268
a(I6389577
I1
tp2269
a(I27576462
I1
tp2270
a(I9897007
I0
tp2271
a(I26265015
I0
tp2272
a(I34271014
I0
tp2273
a(I34505283
I0
tp2274
a(I21833068
I0
tp2275
a(I20339462
I3
tp2276
a(I4976964
I1
tp2277
a(I18353465
I0
tp2278
a(I14208280
I0
tp2279
a(I24004106
I2
tp2280
a(I29908931
I1
tp2281
a(I9849828
I0
tp2282
a(I10342939
I1
tp2283
a(I5873969
I1
tp2284
a(I32161369
I1
tp2285
a(I35020513
I1
tp2286
a(I34243214
I1
tp2287
a(I11078122
I0
tp2288
a(I34244726
I3
tp2289
a(I12184015
I1
tp2290
a(I4219843
I1
tp2291
a(I16897609
I1
tp2292
a(I33928554
I2
tp2293
a(I28208430
I1
tp2294
a(I35596269
I1
tp2295
a(I21739450
I1
tp2296
a(I6389577
I0
tp2297
a(I26552266
I1
tp2298
a(I2397295
I1
tp2299
a(I35288428
I0
tp2300
a(I3254713
I0
tp2301
a(I33607716
I1
tp2302
a(I25000584
I0
tp2303
a(I31941020
I1
tp2304
a(I24055067
I1
tp2305
a(I33706780
I1
tp2306
a(I28500718
I2
tp2307
a(I11066400
I0
tp2308
a(I34079643
I3
tp2309
a(I25859572
I3
tp2310
a(I29155628
I0
tp2311
a(I18679264
I4
tp2312
a(I2255177
I1
tp2313
a(I14808945
I0
tp2314
a(I2654689
I0
tp2315
a(I34146928
I1
tp2316
a(I24445991
I1
tp2317
a(I26497396
I0
tp2318
a(I1783251
I3
tp2319
a(I17811168
I0
tp2320
a(I22024409
I0
tp2321
a(I28438247
I1
tp2322
a(I34970283
I1
tp2323
a(I12081704
I5
tp2324
a(I16207633
I1
tp2325
a(I2337285
I1
tp2326
a(I2716894
I2
tp2327
a(I34977252
I0
tp2328
a(I25286811
I0
tp2329
a(I572263
I0
tp2330
a(I36799190
I4
tp2331
a(I37113173
I1
tp2332
a(I1008038
I1
tp2333
a(I17103701
I1
tp2334
a(I30602088
I1
tp2335
a(I28467688
I0
tp2336
a(I34672986
I3
tp2337
a(I15508970
I0
tp2338
a(I32174535
I0
tp2339
a(I1448820
I2
tp2340
a(I6050187
I0
tp2341
a(I12012818
I0
tp2342
a(I28280507
I0
tp2343
a(I21532471
I0
tp2344
a(I36928577
I1
tp2345
a(I22672340
I0
tp2346
a(I6611563
I1
tp2347
a(I26279903
I0
tp2348
a(I15418751
I0
tp2349
a(I19562863
I0
tp2350
a(I13794620
I2
tp2351
a(I10889564
I1
tp2352
a(I30949202
I0
tp2353
a(I35720234
I0
tp2354
a(I7132861
I1
tp2355
a(I31404238
I0
tp2356
a(I35428388
I2
tp2357
a(I17065086
I1
tp2358
a(I16090146
I0
tp2359
a(I19391149
I0
tp2360
a(I4484985
I0
tp2361
a(I12413317
I0
tp2362
a(I27810523
I1
tp2363
a(I15238389
I1
tp2364
a(I2621549
I0
tp2365
a(I8017432
I2
tp2366
a(I36186624
I1
tp2367
a(I37128072
I0
tp2368
a(I25345843
I1
tp2369
a(I29153805
I1
tp2370
a(I34419926
I1
tp2371
a(I1423251
I2
tp2372
a(I15795416
I1
tp2373
a(I31440326
I1
tp2374
a(I36579996
I6
tp2375
a(I26629789
I0
tp2376
a(I19799490
I0
tp2377
a(I28658817
I1
tp2378
a(I24834560
I0
tp2379
a(I26498100
I2
tp2380
a(I34512219
I1
tp2381
a(I24915181
I0
tp2382
a(I23576318
I1
tp2383
a(I36242061
I3
tp2384
a(I27356890
I0
tp2385
a(I2170228
I1
tp2386
a(I33069366
I3
tp2387
a(I29415538
I1
tp2388
a(I36974140
I2
tp2389
a(I23613138
I1
tp2390
a(I3187961
I2
tp2391
a(I31499985
I1
tp2392
a(I33319664
I2
tp2393
a(I9504638
I1
tp2394
a(I28767484
I2
tp2395
a(I7274521
I1
tp2396
a(I11943980
I1
tp2397
a(I1606436
I2
tp2398
a(I11816741
I2
tp2399
a(I25537262
I2
tp2400
a(I30242208
I6
tp2401
a(I32344022
I2
tp2402
a(I6165277
I1
tp2403
a(I20846235
I3
tp2404
a(I2882308
I2
tp2405
a(I15721679
I1
tp2406
a(I15711845
I2
tp2407
a(I22332069
I1
tp2408
a(I32659345
I0
tp2409
a(I31162560
I0
tp2410
a(I33795081
I1
tp2411
a(I7741455
I0
tp2412
a(I11816741
I0
tp2413
a(I28754280
I0
tp2414
a(I20062684
I1
tp2415
a(I13497170
I1
tp2416
a(I36241474
I0
tp2417
a(I31456902
I3
tp2418
a(I14686212
I3
tp2419
a(I22775168
I1
tp2420
a(I20198951
I2
tp2421
a(I3458542
I3
tp2422
a(I35288428
I1
tp2423
a(I26666329
I0
tp2424
a(I10599771
I0
tp2425
a(I34243214
I3
tp2426
a(I32458370
I4
tp2427
a(I24002551
I0
tp2428
a(I13584299
I1
tp2429
a(I31649843
I1
tp2430
a(I21817657
I3
tp2431
a(I2257101
I0
tp2432
a(I36061608
I1
tp2433
a(I13548996
I1
tp2434
a(I35966940
I0
tp2435
a(I31014848
I2
tp2436
a(I10526579
I0
tp2437
a(I37119314
I1
tp2438
a(I32344022
I0
tp2439
a(I28255693
I0
tp2440
a(I645864
I3
tp2441
a(I34439723
I0
tp2442
a(I23100704
I1
tp2443
a(I7927670
I0
tp2444
a(I27855146
I0
tp2445
a(I6315244
I1
tp2446
a(I9288169
I0
tp2447
a(I15456166
I1
tp2448
a(I34014527
I0
tp2449
a(I37091273
I0
tp2450
a(I20295134
I1
tp2451
a(I20082507
I0
tp2452
a(I27827982
I2
tp2453
a(I14799223
I1
tp2454
a(I21377990
I0
tp2455
a(I23024861
I0
tp2456
a(I34607271
I0
tp2457
a(I4413798
I0
tp2458
a(I30992225
I1
tp2459
a(I37219219
I1
tp2460
a(I18386302
I1
tp2461
a(I7086295
I1
tp2462
a(I227461
I1
tp2463
a(I36165854
I1
tp2464
a(I10805846
I1
tp2465
a(I22953550
I1
tp2466
a(I32102801
I1
tp2467
a(I1933784
I0
tp2468
a(I20470749
I1
tp2469
a(I24195898
I1
tp2470
a(I8685308
I2
tp2471
a(I19043923
I0
tp2472
a(I35322452
I2
tp2473
a(I8147559
I0
tp2474
a(I14144315
I2
tp2475
a(I18286362
I2
tp2476
a(I34400455
I0
tp2477
a(I29998052
I12
tp2478
a(I33296707
I1
tp2479
a(I31936573
I0
tp2480
a(I33354950
I2
tp2481
a(I26613341
I0
tp2482
a(I14583576
I1
tp2483
a(I9151104
I1
tp2484
a(I36550795
I1
tp2485
a(I23669024
I1
tp2486
a(I35559958
I1
tp2487
a(I20339462
I1
tp2488
a(I28348485
I3
tp2489
a(I20215266
I1
tp2490
a(I17641195
I0
tp2491
a(I24427828
I3
tp2492
a(I23388668
I1
tp2493
a(I23114734
I2
tp2494
a(I31768613
I1
tp2495
a(I34117408
I4
tp2496
a(I30683325
I0
tp2497
a(I27793543
I1
tp2498
a(I28774852
I0
tp2499
a(I31567882
I0
tp2500
a(I16021184
I1
tp2501
a(I21053458
I1
tp2502
a(I25286811
I1
tp2503
a(I29224567
I2
tp2504
a(I19552183
I0
tp2505
a(I21668606
I0
tp2506
a(I22893271
I1
tp2507
a(I32458370
I1
tp2508
a(I29935056
I2
tp2509
a(I23271192
I3
tp2510
a(I32244565
I1
tp2511
a(I24928086
I0
tp2512
a(I17762515
I1
tp2513
a(I2572099
I1
tp2514
a(I22961541
I0
tp2515
a(I28677840
I2
tp2516
a(I19395350
I1
tp2517
a(I24787224
I0
tp2518
a(I15089310
I0
tp2519
a(I12307099
I0
tp2520
a(I11623769
I0
tp2521
a(I3947654
I2
tp2522
a(I31650674
I3
tp2523
a(I508657
I1
tp2524
a(I32907015
I1
tp2525
a(I11388032
I1
tp2526
a(I32966627
I1
tp2527
a(I17799504
I1
tp2528
a(I2382905
I1
tp2529
a(I23310630
I2
tp2530
a(I23555995
I1
tp2531
a(I32792411
I3
tp2532
a(I1527689
I0
tp2533
a(I32262334
I2
tp2534
a(I31076841
I1
tp2535
a(I26453595
I0
tp2536
a(I36731365
I0
tp2537
a(I11382536
I0
tp2538
a(I32344022
I1
tp2539
a(I35242055
I1
tp2540
a(I28072914
I1
tp2541
a(I30837683
I0
tp2542
a(I7877282
I1
tp2543
a(I31162560
I1
tp2544
a(I16142829
I0
tp2545
a(I15820788
I0
tp2546
a(I25296219
I1
tp2547
a(I9406400
I2
tp2548
a(I20959022
I1
tp2549
a(I34371807
I1
tp2550
a(I14017199
I0
tp2551
a(I35061363
I1
tp2552
a(I22700457
I4
tp2553
a(I12309693
I0
tp2554
a(I29952373
I0
tp2555
a(I11668603
I1
tp2556
a(I765305
I0
tp2557
a(I10126668
I3
tp2558
a(I37374947
I1
tp2559
a(I33062288
I1
tp2560
a(I14711669
I0
tp2561
a(I17561901
I1
tp2562
a(I32802833
I0
tp2563
a(I25047254
I5
tp2564
a(I13953964
I2
tp2565
a(I36458482
I1
tp2566
a(I3986345
I1
tp2567
a(I2082387
I2
tp2568
a(I13471083
I1
tp2569
a(I35485675
I1
tp2570
a(I13247749
I1
tp2571
a(I19543636
I0
tp2572
a(I1527689
I1
tp2573
a(I3738269
I4
tp2574
a(I14275975
I0
tp2575
a(I14856385
I1
tp2576
a(I15547217
I0
tp2577
a(I11902626
I0
tp2578
a(I7734028
I1
tp2579
a(I29969430
I1
tp2580
a(I31393692
I0
tp2581
a(I36835793
I1
tp2582
a(I32161369
I0
tp2583
a(I10881852
I0
tp2584
a(I11207302
I2
tp2585
a(I6237378
I3
tp2586
a(I19045971
I1
tp2587
a(I25217124
I1
tp2588
a(I27947419
I0
tp2589
a(I14285049
I2
tp2590
a(I8180404
I0
tp2591
a(I30053381
I0
tp2592
a(I34672986
I2
tp2593
a(I3121979
I0
tp2594
a(I21720721
I1
tp2595
a(I7171140
I0
tp2596
a(I16123732
I1
tp2597
a(I10562180
I1
tp2598
a(I16253958
I0
tp2599
a(I9897007
I1
tp2600
a(I24638781
I1
tp2601
a(I15688462
I3
tp2602
a(I20593215
I2
tp2603
a(I933612
I3
tp2604
a(I11830474
I0
tp2605
a(I23961648
I2
tp2606
a(I25345843
I0
tp2607
a(I37232279
I0
tp2608
a(I27733482
I2
tp2609
a(I3102098
I5
tp2610
a(I28566041
I4
tp2611
a(I24833817
I1
tp2612
a(I29968046
I0
tp2613
a(I22484903
I3
tp2614
a(I23626026
I1
tp2615
a(I34977252
I1
tp2616
a(I37119071
I0
tp2617
a(I37397296
I0
tp2618
a(I1767565
I0
tp2619
a(I1777344
I0
tp2620
a(I11040604
I0
tp2621
a(I14622698
I4
tp2622
a(I28246655
I0
tp2623
a(I34600056
I1
tp2624
a(I31617530
I0
tp2625
a(I18619131
I1
tp2626
a(I24216198
I0
tp2627
a(I17471682
I3
tp2628
a(I37106934
I0
tp2629
a(I12573992
I2
tp2630
a(I24438325
I2
tp2631
a(I17921455
I1
tp2632
a(I9013354
I0
tp2633
a(I29547906
I0
tp2634
a(I20720521
I1
tp2635
a(I28606124
I2
tp2636
a(I27458073
I0
tp2637
a(I19925056
I0
tp2638
a(I35104102
I1
tp2639
a(I14436970
I0
tp2640
a(I25690354
I4
tp2641
a(I18157559
I2
tp2642
a(I10108368
I4
tp2643
a(I34514629
I1
tp2644
a(I36071592
I2
tp2645
a(I17288571
I1
tp2646
a(I27112449
I1
tp2647
a(I35560606
I1
tp2648
a(I6205592
I2
tp2649
a(I27024392
I1
tp2650
a(I27914360
I4
tp2651
a(I30701329
I2
tp2652
a(I32902648
I2
tp2653
a(I34073053
I1
tp2654
a(I34478011
I3
tp2655
a(I13103195
I1
tp2656
a(I10001301
I1
tp2657
a(I25249663
I1
tp2658
a(I16107526
I0
tp2659
a(I16782291
I1
tp2660
a(I35346425
I1
tp2661
a(I31619128
I1
tp2662
a(I23147735
I1
tp2663
a(I13701374
I0
tp2664
a(I13390315
I1
tp2665
a(I15340713
I0
tp2666
a(I21223269
I0
tp2667
a(I35962295
I1
tp2668
a(I34456661
I0
tp2669
a(I23699378
I3
tp2670
a(I30272538
I1
tp2671
a(I26969526
I1
tp2672
a(I36572221
I1
tp2673
a(I31556782
I0
tp2674
a(I2785714
I1
tp2675
a(I13701374
I2
tp2676
a(I21892080
I0
tp2677
a(I33354950
I0
tp2678
a(I35678083
I0
tp2679
a(I11944826
I1
tp2680
a(I13728878
I1
tp2681
a(I14891190
I1
tp2682
a(I33402355
I4
tp2683
a(I17636790
I1
tp2684
a(I35609991
I2
tp2685
a(I12496531
I1
tp2686
a(I24717673
I1
tp2687
a(I24269756
I0
tp2688
a(I34057756
I1
tp2689
a(I33970546
I0
tp2690
a(I24162868
I0
tp2691
a(I21111836
I2
tp2692
a(I28387109
I1
tp2693
a(I17013381
I1
tp2694
a(I31912253
I2
tp2695
a(I30977603
I0
tp2696
a(I16143648
I3
tp2697
a(I10961378
I1
tp2698
a(I24495059
I0
tp2699
a(I4702518
I0
tp2700
a(I25296219
I0
tp2701
a(I1029207
I0
tp2702
a(I4808753
I1
tp2703
a(I4696418
I1
tp2704
a(I24024966
I1
tp2705
a(I9456233
I1
tp2706
a(I18972212
I0
tp2707
a(I28404183
I1
tp2708
a(I22912351
I0
tp2709
a(I12329807
I3
tp2710
a(I33402355
I3
tp2711
a(I31202918
I0
tp2712
a(I36731365
I2
tp2713
a(I27216944
I1
tp2714
a(I34556645
I1
tp2715
a(I19122988
I2
tp2716
a(I26922284
I1
tp2717
a(I35805891
I1
tp2718
a(I18679264
I1
tp2719
a(I24518769
I1
tp2720
a(I15721679
I2
tp2721
a(I16862690
I1
tp2722
a(I36242061
I2
tp2723
a(I25104929
I0
tp2724
a(I5222333
I0
tp2725
a(I15211991
I1
tp2726
a(I5701962
I2
tp2727
a(I29935056
I0
tp2728
a(I37083117
I0
tp2729
a(I22769503
I0
tp2730
a(I32379895
I4
tp2731
a(I706813
I0
tp2732
a(I1527689
I3
tp2733
a(I30685363
I1
tp2734
a(I20452340
I0
tp2735
a(I34914655
I1
tp2736
a(I34243214
I0
tp2737
a(I8605189
I2
tp2738
a(I36783166
I0
tp2739
a(I6943912
I2
tp2740
a(I32623285
I1
tp2741
a(I23271192
I0
tp2742
a(I30685363
I0
tp2743
a(I32346156
I0
tp2744
a(I20825173
I2
tp2745
a(I6943912
I1
tp2746
a(I20531168
I0
tp2747
a(I22221858
I1
tp2748
a(I35656186
I3
tp2749
a(I31390194
I0
tp2750
a(I31335460
I1
tp2751
a(I29831030
I1
tp2752
a(I26063269
I0
tp2753
a(I23206062
I0
tp2754
a(I16019624
I1
tp2755
a(I32946908
I2
tp2756
a(I4975563
I0
tp2757
a(I21919877
I1
tp2758
a(I21500596
I0
tp2759
a(I17809274
I1
tp2760
a(I22668427
I3
tp2761
a(I19945525
I0
tp2762
a(I27947419
I2
tp2763
a(I9013354
I3
tp2764
a(I21212484
I2
tp2765
a(I35656186
I0
tp2766
a(I4981815
I0
tp2767
a(I33811240
I1
tp2768
a(I34596082
I0
tp2769
a(I19882621
I1
tp2770
a(I25244751
I2
tp2771
a(I21015447
I0
tp2772
a(I9542738
I0
tp2773
a(I32295637
I1
tp2774
a(I16661101
I0
tp2775
a(I33347648
I0
tp2776
a(I35083540
I0
tp2777
a(I21817657
I5
tp2778
a(I13913530
I1
tp2779
a(I18673420
I0
tp2780
a(I25000584
I1
tp2781
a(I32256393
I1
tp2782
a(I35428388
I1
tp2783
a(I20484918
I2
tp2784
a(I23231840
I5
tp2785
a(I33021916
I1
tp2786
a(I23368164
I0
tp2787
a(I36806340
I1
tp2788
a(I20670334
I0
tp2789
a(I973481
I2
tp2790
a(I11827100
I1
tp2791
a(I1781554
I0
tp2792
a(I22576924
I1
tp2793
a(I3947313
I1
tp2794
a(I10500834
I0
tp2795
a(I34906231
I1
tp2796
a(I21015447
I1
tp2797
a(I4660250
I0
tp2798
a(I35596269
I0
tp2799
a(I12012818
I1
tp2800
a(I22134243
I0
tp2801
a(I20821815
I0
tp2802
a(I36783166
I1
tp2803
a(I23837696
I2
tp2804
a(I31349898
I0
tp2805
a(I14363016
I0
tp2806
a(I28404183
I3
tp2807
a(I10282693
I0
tp2808
a(I16983863
I1
tp2809
a(I2389846
I3
tp2810
a(I34271014
I3
tp2811
a(I11390421
I1
tp2812
a(I24024966
I3
tp2813
a(I26497396
I1
tp2814
a(I2857634
I0
tp2815
a(I34818228
I1
tp2816
a(I36559053
I0
tp2817
a(I28036818
I0
tp2818
a(I36719792
I0
tp2819
a(I33869234
I1
tp2820
a(I20082507
I1
tp2821
a(I32537153
I0
tp2822
a(I26812595
I0
tp2823
a(I2255177
I0
tp2824
a(I35774261
I3
tp2825
a(I3208076
I1
tp2826
a(I14494101
I0
tp2827
a(I30242208
I9
tp2828
a(I24145957
I1
tp2829
a(I34931548
I1
tp2830
a(I16689117
I1
tp2831
a(I17734781
I0
tp2832
a(I19395350
I0
tp2833
a(I32679481
I1
tp2834
a(I36988306
I0
tp2835
a(I35510590
I3
tp2836
a(I36971758
I1
tp2837
a(I7508774
I2
tp2838
a(I8948166
I1
tp2839
a(I27884051
I2
tp2840
a(I31485414
I1
tp2841
a(I28072914
I3
tp2842
a(I2983959
I0
tp2843
a(I4416013
I3
tp2844
a(I18474538
I1
tp2845
a(I28868384
I0
tp2846
a(I24918515
I0
tp2847
a(I36550795
I3
tp2848
a(I21668606
I2
tp2849
a(I37482313
I5
tp2850
a(I14436970
I4
tp2851
a(I1042751
I1
tp2852
a(I13612437
I0
tp2853
a(I9706041
I0
tp2854
a(I31759951
I0
tp2855
a(I29351492
I2
tp2856
a(I20977408
I1
tp2857
a(I35619038
I0
tp2858
a(I20892950
I0
tp2859
a(I23368164
I2
tp2860
a(I32480553
I0
tp2861
a(I13471083
I2
tp2862
a(I33607716
I6
tp2863
a(I34859683
I0
tp2864
a(I2358890
I0
tp2865
a(I36672440
I0
tp2866
a(I37154201
I2
tp2867
a(I19882621
I0
tp2868
a(I30793198
I1
tp2869
a(I17811168
I3
tp2870
a(I28387109
I2
tp2871
a(I22668427
I2
tp2872
a(I32262334
I0
tp2873
a(I21736784
I0
tp2874
a(I21080357
I1
tp2875
a(I25088066
I0
tp2876
a(I15114761
I1
tp2877
a(I2951701
I1
tp2878
a(I13390315
I2
tp2879
a(I36226959
I1
tp2880
a(I23317342
I0
tp2881
a(I555344
I1
tp2882
a(I28059257
I2
tp2883
a(I21223269
I2
tp2884
a(I3458542
I2
tp2885
a(I34137398
I0
tp2886
a(I37444512
I0
tp2887
a(I22048792
I1
tp2888
a(I5901653
I0
tp2889
a(I31011565
I0
tp2890
a(I20147593
I1
tp2891
a(I20825173
I1
tp2892
a(I29481485
I2
tp2893
a(I24481614
I0
tp2894
a(I3038661
I2
tp2895
a(I26450673
I0
tp2896
a(I19596424
I0
tp2897
a(I27407485
I2
tp2898
a(I13548996
I0
tp2899
a(I35489107
I0
tp2900
a(I30338961
I2
tp2901
a(I20470749
I0
tp2902
a(I18088496
I2
tp2903
a(I37136697
I1
tp2904
a(I23635576
I1
tp2905
a(I21125897
I3
tp2906
a(I2454494
I0
tp2907
a(I28431519
I4
tp2908
a(I25068002
I2
tp2909
a(I22023193
I1
tp2910
a(I18281342
I2
tp2911
a(I4791080
I3
tp2912
a(I28348485
I0
tp2913
a(I18050937
I0
tp2914
a(I5761617
I0
tp2915
a(I33477811
I1
tp2916
a(I33569374
I3
tp2917
a(I35952815
I0
tp2918
a(I17910014
I1
tp2919
a(I16233528
I1
tp2920
a(I16391808
I0
tp2921
a(I33140945
I0
tp2922
a(I28072914
I0
tp2923
a(I25664682
I2
tp2924
a(I31394463
I0
tp2925
a(I20975430
I0
tp2926
a(I32358269
I2
tp2927
a(I19908167
I1
tp2928
a(I30214489
I0
tp2929
a(I33037416
I3
tp2930
a(I15508970
I3
tp2931
a(I37258152
I1
tp2932
a.