(dp0
(I20792891
I0
tp1
I1
s(I23091177
I0
tp2
I1
s(I23954139
I1
tp3
I0
s(I12463628
I1
tp4
I0
s(I19270316
I0
tp5
I0
s(I14675304
I1
tp6
I1
s(I20250357
I1
tp7
I0
s(I31444591
I0
tp8
I1
s(I10164354
I1
tp9
I0
s(I10666965
I4
tp10
I0
s(I27979526
I2
tp11
I1
s(I19163959
I0
tp12
I1
s(I33428932
I2
tp13
I1
s(I30134105
I3
tp14
I1
s(I14636287
I0
tp15
I1
s(I16756054
I0
tp16
I1
s(I19353473
I2
tp17
I0
s(I15616638
I1
tp18
I0
s(I24660075
I4
tp19
I0
s(I35011175
I1
tp20
I0
s(I23552848
I1
tp21
I1
s(I29721968
I0
tp22
I1
s(I18570414
I0
tp23
I0
s(I5816567
I1
tp24
I1
s(I25652248
I1
tp25
I1
s(I24035933
I5
tp26
I0
s(I36478669
I0
tp27
I1
s(I16971556
I0
tp28
I0
s(I14961787
I0
tp29
I1
s(I17890157
I1
tp30
I1
s(I23963860
I3
tp31
I0
s(I25537492
I1
tp32
I0
s(I22544486
I1
tp33
I1
s(I10532323
I1
tp34
I0
s(I19645073
I1
tp35
I1
s(I27471951
I1
tp36
I1
s(I23908145
I2
tp37
I0
s(I6611453
I1
tp38
I0
s(I6174355
I2
tp39
I0
s(I31468957
I2
tp40
I1
s(I32697433
I1
tp41
I1
s(I17352572
I0
tp42
I0
s(I18757944
I1
tp43
I1
s(I1070122
I0
tp44
I1
s(I37685156
I1
tp45
I1
s(I11495713
I1
tp46
I0
s(I25916350
I1
tp47
I1
s(I36586811
I1
tp48
I1
s(I32802567
I0
tp49
I0
s(I16874590
I0
tp50
I1
s(I24170440
I1
tp51
I1
s(I706664
I0
tp52
I0
s(I4062845
I0
tp53
I0
s(I13249903
I1
tp54
I1
s(I7748125
I1
tp55
I1
s(I28961739
I1
tp56
I0
s(I23069422
I0
tp57
I0
s(I15622474
I0
tp58
I0
s(I8451219
I1
tp59
I1
s(I7008452
I1
tp60
I0
s(I4225984
I0
tp61
I0
s(I25390857
I1
tp62
I0
s(I3579079
I1
tp63
I0
s(I28752104
I1
tp64
I0
s(I22668248
I5
tp65
I0
s(I33860657
I0
tp66
I1
s(I32095863
I2
tp67
I1
s(I27521297
I3
tp68
I0
s(I16143769
I1
tp69
I0
s(I27315388
I0
tp70
I1
s(I20197566
I7
tp71
I0
s(I18651768
I1
tp72
I0
s(I8046386
I0
tp73
I0
s(I15108987
I1
tp74
I1
s(I28846567
I1
tp75
I0
s(I5282607
I1
tp76
I0
s(I35903825
I0
tp77
I0
s(I7364969
I3
tp78
I1
s(I9760884
I1
tp79
I0
s(I10338000
I1
tp80
I0
s(I37648860
I0
tp81
I0
s(I3035105
I0
tp82
I1
s(I24375773
I5
tp83
I0
s(I30494810
I7
tp84
I0
s(I30643949
I1
tp85
I1
s(I37109635
I2
tp86
I0
s(I11696995
I1
tp87
I0
s(I15541196
I1
tp88
I0
s(I29487482
I1
tp89
I0
s(I27554417
I0
tp90
I1
s(I2386632
I0
tp91
I1
s(I13345583
I0
tp92
I1
s(I22668248
I4
tp93
I0
s(I29628590
I1
tp94
I1
s(I31720854
I2
tp95
I0
s(I3623645
I0
tp96
I0
s(I30141267
I0
tp97
I1
s(I3900330
I0
tp98
I1
s(I27218389
I1
tp99
I0
s(I3084672
I1
tp100
I1
s(I3444082
I0
tp101
I1
s(I7794875
I1
tp102
I1
s(I8159093
I0
tp103
I1
s(I13230133
I0
tp104
I1
s(I28775590
I0
tp105
I0
s(I28675581
I0
tp106
I1
s(I5087616
I2
tp107
I0
s(I13281693
I1
tp108
I1
s(I11329936
I0
tp109
I1
s(I15964439
I0
tp110
I0
s(I7364969
I4
tp111
I1
s(I35478088
I6
tp112
I0
s(I27112737
I0
tp113
I1
s(I29883190
I0
tp114
I0
s(I1362148
I0
tp115
I1
s(I12712480
I1
tp116
I0
s(I5020149
I1
tp117
I1
s(I25144691
I1
tp118
I1
s(I17769111
I1
tp119
I0
s(I22914453
I2
tp120
I0
s(I27417566
I1
tp121
I1
s(I13427389
I1
tp122
I1
s(I19582702
I1
tp123
I0
s(I25259434
I0
tp124
I0
s(I31721962
I0
tp125
I0
s(I36176385
I0
tp126
I1
s(I28663276
I3
tp127
I0
s(I12498046
I0
tp128
I1
s(I17703008
I0
tp129
I1
s(I30030023
I0
tp130
I0
s(I713960
I2
tp131
I1
s(I30652021
I0
tp132
I1
s(I7745609
I2
tp133
I1
s(I35753972
I1
tp134
I0
s(I33860211
I2
tp135
I1
s(I13183568
I1
tp136
I0
s(I4866013
I1
tp137
I1
s(I18359263
I2
tp138
I0
s(I25579264
I4
tp139
I1
s(I3609687
I0
tp140
I1
s(I2056938
I2
tp141
I1
s(I25839647
I0
tp142
I0
s(I24438529
I1
tp143
I0
s(I13241518
I0
tp144
I0
s(I7364969
I13
tp145
I1
s(I28986618
I1
tp146
I0
s(I30356880
I4
tp147
I0
s(I13537347
I0
tp148
I1
s(I12250195
I2
tp149
I1
s(I17129510
I3
tp150
I0
s(I9789395
I1
tp151
I1
s(I26494428
I1
tp152
I0
s(I13096793
I1
tp153
I1
s(I37316901
I0
tp154
I1
s(I24040926
I0
tp155
I1
s(I19582011
I1
tp156
I1
s(I16688990
I0
tp157
I0
s(I37624090
I1
tp158
I0
s(I34031494
I1
tp159
I0
s(I33510248
I0
tp160
I0
s(I18486580
I1
tp161
I1
s(I27476006
I0
tp162
I1
s(I26804962
I1
tp163
I1
s(I13791170
I4
tp164
I1
s(I501021
I1
tp165
I1
s(I34875353
I0
tp166
I0
s(I1479831
I0
tp167
I1
s(I8939857
I0
tp168
I1
s(I31281768
I5
tp169
I0
s(I26285750
I0
tp170
I0
s(I14159629
I0
tp171
I1
s(I17851492
I0
tp172
I1
s(I25531666
I0
tp173
I1
s(I26929769
I0
tp174
I1
s(I3317750
I2
tp175
I0
s(I13717630
I0
tp176
I1
s(I30458856
I1
tp177
I1
s(I6280565
I1
tp178
I1
s(I13144230
I1
tp179
I0
s(I16569297
I1
tp180
I0
s(I8223650
I0
tp181
I1
s(I11307344
I0
tp182
I1
s(I31194265
I1
tp183
I1
s(I14705215
I2
tp184
I1
s(I25321698
I2
tp185
I0
s(I27122437
I1
tp186
I0
s(I19532288
I3
tp187
I1
s(I8629046
I1
tp188
I1
s(I19866409
I1
tp189
I0
s(I6743541
I0
tp190
I0
s(I6621502
I3
tp191
I0
s(I15302356
I2
tp192
I0
s(I25734598
I1
tp193
I0
s(I4823208
I0
tp194
I1
s(I29318004
I1
tp195
I1
s(I25472241
I1
tp196
I0
s(I22583760
I1
tp197
I0
s(I2289907
I2
tp198
I1
s(I9218949
I0
tp199
I1
s(I1197943
I1
tp200
I0
s(I15872394
I0
tp201
I0
s(I23676371
I1
tp202
I0
s(I8046386
I4
tp203
I0
s(I33939688
I3
tp204
I1
s(I16507239
I0
tp205
I0
s(I7830197
I1
tp206
I1
s(I31533615
I0
tp207
I0
s(I33447891
I1
tp208
I1
s(I11814210
I1
tp209
I0
s(I30108652
I1
tp210
I0
s(I5393244
I3
tp211
I0
s(I2588304
I0
tp212
I1
s(I2919168
I3
tp213
I1
s(I33258020
I1
tp214
I1
s(I15616278
I0
tp215
I1
s(I24921796
I0
tp216
I1
s(I192220
I5
tp217
I0
s(I22311646
I0
tp218
I1
s(I3951413
I0
tp219
I1
s(I10787043
I0
tp220
I1
s(I5760020
I2
tp221
I1
s(I4857837
I4
tp222
I1
s(I28749544
I0
tp223
I0
s(I15621609
I1
tp224
I1
s(I9623187
I2
tp225
I0
s(I34604707
I0
tp226
I0
s(I13840468
I3
tp227
I0
s(I26496183
I1
tp228
I1
s(I3426560
I2
tp229
I1
s(I11260900
I0
tp230
I1
s(I33965409
I2
tp231
I0
s(I8315026
I0
tp232
I1
s(I21626432
I0
tp233
I1
s(I33437351
I0
tp234
I1
s(I28285834
I1
tp235
I1
s(I16291075
I0
tp236
I1
s(I22366810
I0
tp237
I0
s(I5501347
I1
tp238
I1
s(I14838374
I0
tp239
I0
s(I33447891
I0
tp240
I1
s(I32819225
I1
tp241
I1
s(I35150739
I0
tp242
I1
s(I3925043
I1
tp243
I1
s(I30578605
I0
tp244
I1
s(I33137311
I1
tp245
I0
s(I27166043
I0
tp246
I1
s(I8546198
I2
tp247
I1
s(I6814426
I1
tp248
I1
s(I20147303
I1
tp249
I1
s(I30805539
I0
tp250
I1
s(I13584250
I0
tp251
I1
s(I21250631
I1
tp252
I0
s(I36834990
I0
tp253
I1
s(I30977821
I3
tp254
I0
s(I31944662
I1
tp255
I1
s(I30934830
I0
tp256
I1
s(I9153901
I1
tp257
I1
s(I28190592
I0
tp258
I1
s(I15243399
I1
tp259
I0
s(I9475177
I2
tp260
I0
s(I6468506
I0
tp261
I1
s(I36249094
I0
tp262
I1
s(I21280605
I0
tp263
I0
s(I13758033
I1
tp264
I1
s(I9777457
I2
tp265
I0
s(I10199927
I0
tp266
I0
s(I30263295
I2
tp267
I0
s(I18778492
I0
tp268
I0
s(I33860211
I1
tp269
I0
s(I25420950
I0
tp270
I1
s(I22537662
I1
tp271
I1
s(I36377860
I1
tp272
I0
s(I23997222
I0
tp273
I0
s(I34191191
I2
tp274
I1
s(I37691287
I0
tp275
I1
s(I36117235
I0
tp276
I1
s(I11783678
I4
tp277
I1
s(I26063286
I0
tp278
I0
s(I4441599
I1
tp279
I1
s(I23166266
I1
tp280
I0
s(I30166727
I1
tp281
I0
s(I15357576
I0
tp282
I1
s(I21389431
I2
tp283
I1
s(I31143856
I1
tp284
I0
s(I2559110
I2
tp285
I0
s(I31720854
I5
tp286
I0
s(I4589157
I0
tp287
I1
s(I31720854
I6
tp288
I0
s(I560694
I1
tp289
I0
s(I12088243
I1
tp290
I1
s(I21302307
I4
tp291
I0
s(I21613270
I0
tp292
I1
s(I17810221
I0
tp293
I1
s(I37173392
I1
tp294
I0
s(I9394879
I6
tp295
I0
s(I1809787
I1
tp296
I0
s(I8847175
I0
tp297
I0
s(I5393244
I2
tp298
I0
s(I19902526
I3
tp299
I0
s(I10993546
I3
tp300
I0
s(I11852951
I2
tp301
I0
s(I33648148
I0
tp302
I0
s(I35700944
I1
tp303
I1
s(I28840985
I0
tp304
I1
s(I35753972
I2
tp305
I1
s(I32372280
I0
tp306
I0
s(I21424132
I1
tp307
I0
s(I5290418
I1
tp308
I1
s(I19155321
I1
tp309
I0
s(I3482194
I0
tp310
I0
s(I19053225
I0
tp311
I1
s(I34610639
I4
tp312
I0
s(I9206962
I0
tp313
I1
s(I24012213
I1
tp314
I0
s(I31978339
I1
tp315
I0
s(I8143581
I0
tp316
I1
s(I15512015
I1
tp317
I0
s(I10277115
I1
tp318
I1
s(I1979522
I3
tp319
I0
s(I14792677
I1
tp320
I1
s(I29652394
I0
tp321
I0
s(I22738933
I3
tp322
I0
s(I30099821
I0
tp323
I1
s(I16930761
I0
tp324
I1
s(I44780
I1
tp325
I0
s(I20935221
I0
tp326
I1
s(I13545617
I0
tp327
I1
s(I23803359
I5
tp328
I0
s(I12151979
I0
tp329
I0
s(I33633660
I1
tp330
I0
s(I16093468
I0
tp331
I0
s(I27922122
I0
tp332
I0
s(I19256123
I0
tp333
I1
s(I13069202
I0
tp334
I1
s(I36425557
I0
tp335
I0
s(I11350686
I3
tp336
I1
s(I33050763
I2
tp337
I0
s(I33538420
I0
tp338
I1
s(I14672688
I1
tp339
I1
s(I26682614
I2
tp340
I1
s(I14565788
I1
tp341
I0
s(I16216129
I0
tp342
I1
s(I28082687
I0
tp343
I1
s(I15720109
I0
tp344
I1
s(I27218389
I0
tp345
I0
s(I35756149
I0
tp346
I0
s(I21075815
I1
tp347
I1
s(I35701321
I2
tp348
I1
s(I8015482
I0
tp349
I1
s(I34221483
I2
tp350
I0
s(I37148559
I0
tp351
I0
s(I26728011
I3
tp352
I1
s(I24372541
I0
tp353
I0
s(I33275284
I0
tp354
I1
s(I23803359
I2
tp355
I0
s(I28474871
I1
tp356
I1
s(I2524600
I0
tp357
I1
s(I30805539
I1
tp358
I1
s(I27379264
I2
tp359
I1
s(I17833022
I0
tp360
I1
s(I33831023
I2
tp361
I0
s(I23096845
I1
tp362
I0
s(I30616479
I4
tp363
I0
s(I33279715
I1
tp364
I1
s(I14469652
I1
tp365
I0
s(I25046224
I2
tp366
I0
s(I26332939
I0
tp367
I0
s(I28308752
I0
tp368
I0
s(I31840220
I1
tp369
I1
s(I21832842
I1
tp370
I0
s(I955927
I1
tp371
I0
s(I35268549
I1
tp372
I0
s(I20838921
I6
tp373
I0
s(I33965409
I0
tp374
I0
s(I216007
I2
tp375
I0
s(I16053215
I1
tp376
I1
s(I35577600
I1
tp377
I1
s(I20519532
I1
tp378
I0
s(I7994408
I2
tp379
I1
s(I18708680
I1
tp380
I0
s(I26341790
I2
tp381
I1
s(I30494810
I3
tp382
I0
s(I36425557
I4
tp383
I0
s(I19268811
I1
tp384
I1
s(I7656057
I1
tp385
I1
s(I17325149
I3
tp386
I0
s(I26729494
I1
tp387
I0
s(I6688196
I1
tp388
I0
s(I15117826
I4
tp389
I0
s(I10999396
I0
tp390
I1
s(I19270491
I1
tp391
I0
s(I18724492
I1
tp392
I1
s(I19408757
I1
tp393
I0
s(I15627299
I1
tp394
I1
s(I28129007
I0
tp395
I0
s(I22655631
I1
tp396
I1
s(I23768482
I0
tp397
I0
s(I2411210
I1
tp398
I0
s(I35647425
I0
tp399
I1
s(I32277369
I1
tp400
I1
s(I10389260
I2
tp401
I1
s(I11019847
I0
tp402
I1
s(I22738933
I0
tp403
I0
s(I2507933
I1
tp404
I1
s(I14965566
I3
tp405
I1
s(I13410246
I1
tp406
I1
s(I21646708
I1
tp407
I0
s(I7676110
I1
tp408
I1
s(I37088208
I1
tp409
I1
s(I19949250
I0
tp410
I1
s(I11114638
I1
tp411
I0
s(I34417879
I0
tp412
I0
s(I18499562
I1
tp413
I1
s(I18858779
I5
tp414
I0
s(I15264563
I0
tp415
I1
s(I23176321
I1
tp416
I0
s(I6031181
I0
tp417
I1
s(I6688196
I3
tp418
I0
s(I30356880
I1
tp419
I1
s(I28397342
I1
tp420
I1
s(I32288840
I0
tp421
I1
s(I20454604
I1
tp422
I1
s(I11468551
I1
tp423
I0
s(I32381393
I1
tp424
I1
s(I6836478
I2
tp425
I0
s(I15743183
I1
tp426
I0
s(I13103114
I1
tp427
I1
s(I13840468
I8
tp428
I0
s(I24194784
I2
tp429
I1
s(I24910861
I1
tp430
I0
s(I7116576
I0
tp431
I0
s(I15742348
I0
tp432
I1
s(I33541995
I2
tp433
I1
s(I7901416
I0
tp434
I0
s(I11900470
I0
tp435
I1
s(I33573890
I0
tp436
I0
s(I18922620
I1
tp437
I1
s(I29359799
I1
tp438
I1
s(I33736568
I0
tp439
I1
s(I14930630
I1
tp440
I0
s(I8337138
I1
tp441
I1
s(I11847584
I1
tp442
I1
s(I4621932
I2
tp443
I1
s(I15150057
I0
tp444
I1
s(I14124763
I1
tp445
I1
s(I11696995
I3
tp446
I0
s(I26019476
I3
tp447
I0
s(I31010476
I0
tp448
I0
s(I32096616
I1
tp449
I1
s(I29949018
I0
tp450
I0
s(I16053425
I0
tp451
I1
s(I18547311
I0
tp452
I0
s(I37452486
I0
tp453
I0
s(I23948815
I1
tp454
I1
s(I2318539
I0
tp455
I0
s(I32732880
I0
tp456
I0
s(I34696374
I1
tp457
I1
s(I19101688
I1
tp458
I1
s(I2056938
I0
tp459
I1
s(I18289563
I1
tp460
I1
s(I14732938
I3
tp461
I1
s(I12386646
I0
tp462
I1
s(I10330898
I1
tp463
I1
s(I26518526
I0
tp464
I0
s(I29012160
I1
tp465
I1
s(I14385741
I1
tp466
I1
s(I8647675
I1
tp467
I0
s(I28068971
I4
tp468
I0
s(I4890793
I1
tp469
I1
s(I24920949
I0
tp470
I0
s(I15706765
I3
tp471
I0
s(I6934563
I0
tp472
I0
s(I18486580
I0
tp473
I1
s(I22348948
I0
tp474
I1
s(I36377860
I0
tp475
I0
s(I18852505
I0
tp476
I1
s(I32880727
I0
tp477
I1
s(I37247507
I3
tp478
I0
s(I36402026
I1
tp479
I0
s(I6333687
I1
tp480
I0
s(I12063841
I0
tp481
I1
s(I20661535
I0
tp482
I1
s(I14296002
I4
tp483
I1
s(I20637482
I0
tp484
I1
s(I23527871
I1
tp485
I1
s(I24636896
I1
tp486
I1
s(I28252370
I0
tp487
I1
s(I15834569
I1
tp488
I0
s(I19447701
I0
tp489
I1
s(I36239016
I1
tp490
I0
s(I24275420
I0
tp491
I1
s(I23807485
I1
tp492
I1
s(I18749306
I5
tp493
I0
s(I23642201
I1
tp494
I1
s(I21956650
I0
tp495
I1
s(I16490625
I0
tp496
I1
s(I5606689
I1
tp497
I0
s(I3318852
I0
tp498
I1
s(I30309531
I0
tp499
I0
s(I8276553
I0
tp500
I1
s(I23129852
I2
tp501
I0
s(I5380843
I2
tp502
I0
s(I18410600
I0
tp503
I0
s(I539942
I0
tp504
I1
s(I22393469
I0
tp505
I1
s(I29446361
I0
tp506
I1
s(I29563877
I1
tp507
I0
s(I9429371
I2
tp508
I1
s(I34687839
I0
tp509
I1
s(I22228967
I2
tp510
I1
s(I3895652
I0
tp511
I1
s(I23129852
I1
tp512
I0
s(I14540736
I0
tp513
I1
s(I7605630
I0
tp514
I1
s(I970357
I1
tp515
I0
s(I19718193
I0
tp516
I1
s(I28698635
I1
tp517
I0
s(I15948208
I1
tp518
I0
s(I14513314
I0
tp519
I1
s(I12175474
I0
tp520
I1
s(I24779447
I0
tp521
I0
s(I23963860
I5
tp522
I0
s(I25537492
I0
tp523
I1
s(I13452415
I0
tp524
I1
s(I20792891
I3
tp525
I1
s(I16895364
I0
tp526
I1
s(I23954139
I0
tp527
I1
s(I12463628
I2
tp528
I0
s(I9704624
I1
tp529
I1
s(I31277383
I0
tp530
I0
s(I19716510
I0
tp531
I1
s(I13967474
I2
tp532
I1
s(I31444591
I3
tp533
I0
s(I37449748
I0
tp534
I0
s(I27979526
I3
tp535
I1
s(I29027827
I2
tp536
I0
s(I35232556
I0
tp537
I0
s(I16797418
I1
tp538
I1
s(I30134105
I2
tp539
I0
s(I16756054
I1
tp540
I0
s(I5393244
I1
tp541
I0
s(I19353473
I1
tp542
I0
s(I24726688
I1
tp543
I1
s(I6994843
I1
tp544
I0
s(I9172621
I2
tp545
I0
s(I10209706
I1
tp546
I0
s(I11822599
I1
tp547
I1
s(I18570414
I1
tp548
I0
s(I4352912
I0
tp549
I1
s(I5816567
I0
tp550
I1
s(I12335438
I0
tp551
I0
s(I24035933
I4
tp552
I0
s(I16971556
I1
tp553
I0
s(I8684054
I0
tp554
I1
s(I17890157
I0
tp555
I1
s(I12698945
I2
tp556
I1
s(I26592173
I2
tp557
I1
s(I1773534
I0
tp558
I0
s(I16335925
I0
tp559
I1
s(I21481598
I3
tp560
I1
s(I16797418
I3
tp561
I1
s(I19645073
I0
tp562
I1
s(I27471951
I0
tp563
I1
s(I8044345
I0
tp564
I0
s(I6611453
I0
tp565
I0
s(I31468957
I1
tp566
I0
s(I32697433
I0
tp567
I1
s(I2651249
I3
tp568
I1
s(I17352572
I1
tp569
I0
s(I1070122
I1
tp570
I1
s(I14636901
I1
tp571
I1
s(I11495713
I0
tp572
I1
s(I23907556
I0
tp573
I0
s(I36586811
I0
tp574
I1
s(I16874590
I1
tp575
I1
s(I14355527
I1
tp576
I1
s(I3244796
I0
tp577
I1
s(I31741652
I1
tp578
I0
s(I17558290
I4
tp579
I0
s(I7748125
I0
tp580
I1
s(I28961739
I0
tp581
I1
s(I23069422
I1
tp582
I0
s(I10121680
I0
tp583
I1
s(I29474365
I0
tp584
I1
s(I15622474
I1
tp585
I0
s(I4521020
I0
tp586
I0
s(I9535224
I1
tp587
I1
s(I31124970
I0
tp588
I1
s(I17044086
I1
tp589
I1
s(I4225984
I1
tp590
I1
s(I25390857
I0
tp591
I0
s(I3579079
I0
tp592
I0
s(I25428684
I0
tp593
I1
s(I12265411
I1
tp594
I1
s(I21286804
I0
tp595
I1
s(I27521297
I2
tp596
I0
s(I19307842
I0
tp597
I1
s(I16143769
I0
tp598
I1
s(I16053425
I3
tp599
I1
s(I27315388
I1
tp600
I1
s(I8159093
I1
tp601
I1
s(I20197566
I4
tp602
I0
s(I8046386
I1
tp603
I1
s(I15108987
I0
tp604
I1
s(I5087616
I1
tp605
I1
s(I24855053
I2
tp606
I1
s(I27122437
I0
tp607
I1
s(I29771413
I0
tp608
I0
s(I7364969
I2
tp609
I1
s(I35478088
I0
tp610
I0
s(I37405073
I1
tp611
I1
s(I12712480
I0
tp612
I1
s(I1069311
I2
tp613
I0
s(I34245868
I1
tp614
I0
s(I24375773
I4
tp615
I1
s(I30643949
I0
tp616
I1
s(I14253673
I1
tp617
I0
s(I20589984
I0
tp618
I0
s(I24707125
I0
tp619
I1
s(I2386632
I1
tp620
I1
s(I21731573
I2
tp621
I1
s(I1627604
I0
tp622
I1
s(I6093085
I1
tp623
I1
s(I36583115
I1
tp624
I0
s(I30522930
I1
tp625
I1
s(I3900330
I1
tp626
I0
s(I12783579
I5
tp627
I0
s(I10019557
I1
tp628
I1
s(I15122065
I0
tp629
I1
s(I3444082
I1
tp630
I1
s(I28152970
I2
tp631
I1
s(I7794875
I0
tp632
I0
s(I32461027
I0
tp633
I1
s(I35574490
I0
tp634
I0
s(I28775590
I1
tp635
I0
s(I18105224
I0
tp636
I1
s(I37270805
I2
tp637
I0
s(I16877276
I3
tp638
I0
s(I3589286
I0
tp639
I1
s(I15964439
I3
tp640
I0
s(I7364969
I11
tp641
I1
s(I13249903
I0
tp642
I1
s(I33156695
I1
tp643
I1
s(I17017125
I1
tp644
I0
s(I29883190
I1
tp645
I0
s(I18020825
I3
tp646
I0
s(I1362148
I1
tp647
I0
s(I37452178
I1
tp648
I0
s(I27563140
I0
tp649
I1
s(I16212126
I0
tp650
I1
s(I5020149
I0
tp651
I1
s(I16877276
I2
tp652
I1
s(I9127317
I1
tp653
I1
s(I17340363
I3
tp654
I0
s(I13427389
I0
tp655
I1
s(I20096624
I0
tp656
I1
s(I31132669
I2
tp657
I1
s(I31721962
I1
tp658
I0
s(I33273676
I0
tp659
I1
s(I17703008
I1
tp660
I1
s(I29598252
I2
tp661
I1
s(I7745609
I1
tp662
I1
s(I34314266
I0
tp663
I0
s(I4866013
I0
tp664
I1
s(I11900470
I3
tp665
I0
s(I8684054
I2
tp666
I0
s(I19707228
I1
tp667
I1
s(I22052942
I0
tp668
I1
s(I24438529
I0
tp669
I0
s(I14482625
I1
tp670
I1
s(I7364969
I12
tp671
I1
s(I33118186
I2
tp672
I0
s(I19837655
I1
tp673
I0
s(I27610637
I1
tp674
I1
s(I30356880
I5
tp675
I1
s(I16668803
I1
tp676
I0
s(I28611170
I1
tp677
I0
s(I8629046
I0
tp678
I1
s(I13096793
I0
tp679
I1
s(I8636956
I0
tp680
I1
s(I24656842
I0
tp681
I1
s(I32526207
I1
tp682
I1
s(I11568694
I0
tp683
I0
s(I19582011
I0
tp684
I1
s(I15621609
I0
tp685
I1
s(I14537280
I0
tp686
I1
s(I30950398
I0
tp687
I1
s(I14699703
I1
tp688
I0
s(I33510248
I1
tp689
I0
s(I35238887
I6
tp690
I0
s(I20757884
I0
tp691
I0
s(I501021
I0
tp692
I1
s(I12951673
I0
tp693
I0
s(I11119197
I2
tp694
I0
s(I12818621
I0
tp695
I1
s(I6937080
I1
tp696
I0
s(I27399755
I4
tp697
I0
s(I26285750
I1
tp698
I0
s(I17851492
I1
tp699
I0
s(I25531666
I1
tp700
I1
s(I13717630
I1
tp701
I1
s(I674776
I0
tp702
I1
s(I30458856
I2
tp703
I1
s(I6280565
I0
tp704
I1
s(I9704624
I0
tp705
I0
s(I16569297
I0
tp706
I1
s(I37611560
I0
tp707
I0
s(I8223650
I1
tp708
I1
s(I11307344
I1
tp709
I0
s(I9419615
I0
tp710
I0
s(I31194265
I0
tp711
I0
s(I14446303
I2
tp712
I1
s(I19532288
I4
tp713
I1
s(I2788575
I1
tp714
I1
s(I21234177
I1
tp715
I0
s(I19866409
I0
tp716
I1
s(I34604707
I1
tp717
I0
s(I6621502
I0
tp718
I0
s(I25076117
I0
tp719
I0
s(I4823208
I1
tp720
I0
s(I33383829
I2
tp721
I1
s(I25472241
I0
tp722
I1
s(I22583760
I2
tp723
I0
s(I1070122
I2
tp724
I1
s(I3240290
I0
tp725
I1
s(I1197943
I0
tp726
I0
s(I15872394
I1
tp727
I0
s(I23676371
I0
tp728
I0
s(I22366810
I6
tp729
I0
s(I33939688
I4
tp730
I0
s(I16507239
I3
tp731
I0
s(I13159227
I1
tp732
I1
s(I11969118
I0
tp733
I1
s(I27381225
I1
tp734
I0
s(I21528762
I0
tp735
I1
s(I22629022
I2
tp736
I0
s(I15302356
I3
tp737
I0
s(I23225721
I0
tp738
I1
s(I20197566
I1
tp739
I0
s(I2588304
I1
tp740
I1
s(I12713468
I1
tp741
I1
s(I30191802
I0
tp742
I1
s(I33258020
I2
tp743
I1
s(I15616278
I1
tp744
I0
s(I24921796
I1
tp745
I0
s(I192220
I6
tp746
I0
s(I28277247
I1
tp747
I0
s(I22311646
I1
tp748
I1
s(I23626176
I0
tp749
I0
s(I4857837
I3
tp750
I1
s(I28749544
I1
tp751
I1
s(I15532084
I1
tp752
I0
s(I22170964
I1
tp753
I0
s(I6418214
I0
tp754
I0
s(I2781419
I1
tp755
I1
s(I12989520
I0
tp756
I1
s(I10423479
I0
tp757
I1
s(I16335925
I1
tp758
I1
s(I35041250
I2
tp759
I0
s(I4212229
I1
tp760
I0
s(I11260900
I1
tp761
I1
s(I4017878
I0
tp762
I1
s(I8315026
I1
tp763
I1
s(I3440516
I0
tp764
I1
s(I21626432
I1
tp765
I1
s(I4821831
I0
tp766
I0
s(I22366810
I1
tp767
I0
s(I5501347
I0
tp768
I1
s(I8153000
I0
tp769
I1
s(I9355066
I2
tp770
I1
s(I289649
I0
tp771
I1
s(I32819225
I0
tp772
I1
s(I34845881
I1
tp773
I1
s(I13419701
I1
tp774
I1
s(I3925043
I0
tp775
I0
s(I35036298
I0
tp776
I0
s(I31643835
I2
tp777
I1
s(I19941944
I0
tp778
I1
s(I31723200
I2
tp779
I0
s(I1263780
I0
tp780
I1
s(I32943515
I1
tp781
I0
s(I20147303
I0
tp782
I1
s(I13584250
I1
tp783
I0
s(I11783678
I2
tp784
I0
s(I9518900
I0
tp785
I1
s(I18613117
I1
tp786
I0
s(I36834990
I1
tp787
I1
s(I30977821
I2
tp788
I0
s(I32317079
I1
tp789
I0
s(I29598252
I1
tp790
I1
s(I9548686
I2
tp791
I0
s(I21311393
I0
tp792
I0
s(I9153901
I0
tp793
I1
s(I6127338
I2
tp794
I1
s(I28190592
I1
tp795
I1
s(I11762700
I0
tp796
I1
s(I15243399
I0
tp797
I1
s(I9475177
I1
tp798
I0
s(I6468506
I1
tp799
I1
s(I31720854
I4
tp800
I0
s(I36249094
I1
tp801
I1
s(I31273373
I5
tp802
I0
s(I27418411
I1
tp803
I0
s(I18778492
I1
tp804
I0
s(I16426094
I0
tp805
I1
s(I33860211
I0
tp806
I0
s(I35291850
I0
tp807
I1
s(I25420950
I1
tp808
I1
s(I10993546
I2
tp809
I0
s(I25380801
I1
tp810
I1
s(I26862578
I1
tp811
I0
s(I19562212
I0
tp812
I1
s(I16223233
I3
tp813
I0
s(I3589286
I1
tp814
I1
s(I29802055
I1
tp815
I1
s(I23997222
I1
tp816
I0
s(I24116066
I2
tp817
I0
s(I2978700
I1
tp818
I0
s(I26063286
I1
tp819
I1
s(I4441599
I0
tp820
I0
s(I29660006
I4
tp821
I0
s(I30166727
I0
tp822
I0
s(I24310683
I0
tp823
I1
s(I15357576
I1
tp824
I0
s(I27547669
I1
tp825
I0
s(I2884295
I1
tp826
I1
s(I2559110
I3
tp827
I1
s(I10694376
I1
tp828
I1
s(I24391293
I2
tp829
I0
s(I22468717
I0
tp830
I1
s(I11396151
I1
tp831
I0
s(I8139699
I0
tp832
I1
s(I25585674
I0
tp833
I1
s(I21613270
I1
tp834
I1
s(I9394879
I1
tp835
I0
s(I1809787
I0
tp836
I1
s(I19902526
I0
tp837
I0
s(I32832623
I2
tp838
I0
s(I32367084
I0
tp839
I0
s(I33108437
I2
tp840
I0
s(I26429966
I1
tp841
I0
s(I29272756
I0
tp842
I1
s(I521270
I0
tp843
I1
s(I33633660
I4
tp844
I0
s(I32372280
I1
tp845
I0
s(I24082669
I0
tp846
I0
s(I8928978
I2
tp847
I1
s(I21286642
I0
tp848
I1
s(I24012213
I0
tp849
I0
s(I31978339
I0
tp850
I1
s(I23035651
I1
tp851
I0
s(I15512015
I0
tp852
I1
s(I1979522
I0
tp853
I1
s(I4283031
I0
tp854
I1
s(I25032106
I1
tp855
I1
s(I25790263
I1
tp856
I1
s(I26496183
I0
tp857
I1
s(I11960289
I2
tp858
I1
s(I21251963
I0
tp859
I1
s(I34353369
I0
tp860
I1
s(I33908143
I2
tp861
I1
s(I23803359
I4
tp862
I0
s(I12151979
I3
tp863
I0
s(I33633660
I2
tp864
I0
s(I16136119
I0
tp865
I1
s(I32565311
I2
tp866
I0
s(I22040663
I1
tp867
I1
s(I37662540
I1
tp868
I0
s(I25036420
I0
tp869
I1
s(I11350686
I0
tp870
I1
s(I33538420
I1
tp871
I1
s(I10296422
I0
tp872
I0
s(I33965409
I1
tp873
I0
s(I14565788
I2
tp874
I1
s(I22390896
I0
tp875
I0
s(I24610143
I2
tp876
I0
s(I35260298
I0
tp877
I0
s(I33613089
I2
tp878
I0
s(I22742235
I0
tp879
I0
s(I27573760
I0
tp880
I1
s(I21075815
I0
tp881
I1
s(I35701321
I1
tp882
I0
s(I8015482
I1
tp883
I0
s(I37148559
I3
tp884
I0
s(I26728011
I2
tp885
I1
s(I33275284
I1
tp886
I1
s(I24657408
I0
tp887
I0
s(I25238315
I1
tp888
I0
s(I28474871
I0
tp889
I1
s(I11912188
I0
tp890
I0
s(I2524600
I1
tp891
I0
s(I27379264
I3
tp892
I0
s(I34273934
I2
tp893
I0
s(I28628081
I1
tp894
I1
s(I17833022
I1
tp895
I1
s(I20794860
I1
tp896
I0
s(I32768245
I0
tp897
I1
s(I33279715
I0
tp898
I1
s(I14469652
I2
tp899
I0
s(I25046224
I3
tp900
I0
s(I28308752
I1
tp901
I1
s(I10389260
I4
tp902
I1
s(I955927
I0
tp903
I0
s(I29312505
I1
tp904
I1
s(I35268549
I0
tp905
I0
s(I19136921
I2
tp906
I0
s(I20838921
I5
tp907
I0
s(I2169720
I0
tp908
I1
s(I16053215
I0
tp909
I1
s(I7676110
I0
tp910
I1
s(I20519532
I2
tp911
I0
s(I9623187
I1
tp912
I0
s(I2406693
I0
tp913
I1
s(I4948269
I1
tp914
I1
s(I34610639
I3
tp915
I1
s(I4761507
I1
tp916
I1
s(I26449233
I1
tp917
I1
s(I33475700
I0
tp918
I1
s(I19268811
I0
tp919
I1
s(I7656057
I0
tp920
I1
s(I12050795
I1
tp921
I1
s(I17325149
I2
tp922
I1
s(I34722021
I0
tp923
I0
s(I24291644
I0
tp924
I0
s(I18513029
I1
tp925
I1
s(I15117826
I5
tp926
I1
s(I10999396
I1
tp927
I1
s(I19270491
I0
tp928
I0
s(I33883763
I1
tp929
I1
s(I19408757
I0
tp930
I0
s(I2695116
I0
tp931
I0
s(I15627299
I0
tp932
I1
s(I374079
I0
tp933
I1
s(I18404055
I10
tp934
I0
s(I28219230
I2
tp935
I1
s(I22655631
I0
tp936
I1
s(I8293350
I0
tp937
I1
s(I23768482
I1
tp938
I0
s(I10659824
I0
tp939
I1
s(I11436797
I2
tp940
I0
s(I31478205
I4
tp941
I1
s(I10389260
I3
tp942
I0
s(I30437156
I0
tp943
I1
s(I726582
I3
tp944
I0
s(I14965566
I0
tp945
I0
s(I19949250
I1
tp946
I1
s(I17099089
I1
tp947
I1
s(I23034365
I1
tp948
I1
s(I4621932
I4
tp949
I0
s(I18858779
I4
tp950
I0
s(I35800153
I1
tp951
I0
s(I2900217
I2
tp952
I1
s(I23176321
I0
tp953
I0
s(I10919401
I1
tp954
I1
s(I30607214
I2
tp955
I0
s(I11468551
I0
tp956
I1
s(I9573470
I0
tp957
I1
s(I33267250
I2
tp958
I1
s(I7246987
I2
tp959
I0
s(I14860852
I1
tp960
I0
s(I17073134
I1
tp961
I1
s(I4960337
I2
tp962
I1
s(I726582
I4
tp963
I0
s(I4841038
I1
tp964
I0
s(I25961419
I1
tp965
I1
s(I13308281
I1
tp966
I1
s(I19041847
I1
tp967
I0
s(I31086391
I0
tp968
I0
s(I33593080
I0
tp969
I1
s(I21969425
I0
tp970
I1
s(I21367807
I1
tp971
I1
s(I7116576
I1
tp972
I0
s(I15742348
I1
tp973
I1
s(I8046345
I1
tp974
I1
s(I7901416
I1
tp975
I0
s(I778909
I0
tp976
I1
s(I17129510
I0
tp977
I0
s(I26849766
I0
tp978
I1
s(I18922620
I2
tp979
I1
s(I802027
I1
tp980
I1
s(I29359799
I0
tp981
I1
s(I33736568
I1
tp982
I1
s(I33483212
I1
tp983
I1
s(I28619830
I1
tp984
I1
s(I18146788
I1
tp985
I1
s(I11847584
I2
tp986
I1
s(I4621932
I3
tp987
I0
s(I14124763
I0
tp988
I1
s(I11696995
I2
tp989
I0
s(I15445216
I0
tp990
I1
s(I29949018
I1
tp991
I0
s(I18547311
I3
tp992
I1
s(I37452486
I1
tp993
I0
s(I23948815
I0
tp994
I1
s(I19189050
I2
tp995
I1
s(I3035105
I1
tp996
I1
s(I32732880
I1
tp997
I1
s(I32928624
I0
tp998
I0
s(I23959544
I2
tp999
I0
s(I2056938
I1
tp1000
I1
s(I14732938
I0
tp1001
I1
s(I12386646
I1
tp1002
I1
s(I23950035
I1
tp1003
I1
s(I29012160
I2
tp1004
I1
s(I14385741
I0
tp1005
I1
s(I8647675
I0
tp1006
I0
s(I8423506
I0
tp1007
I0
s(I4890793
I0
tp1008
I1
s(I12366390
I2
tp1009
I1
s(I15706765
I2
tp1010
I1
s(I9301321
I1
tp1011
I1
s(I5282607
I0
tp1012
I0
s(I35869713
I1
tp1013
I0
s(I32182160
I0
tp1014
I1
s(I6333687
I0
tp1015
I1
s(I15066914
I2
tp1016
I0
s(I18619973
I1
tp1017
I1
s(I24636896
I2
tp1018
I1
s(I28252370
I1
tp1019
I0
s(I18669731
I2
tp1020
I1
s(I19006430
I0
tp1021
I1
s(I27055911
I1
tp1022
I0
s(I37620195
I0
tp1023
I0
s(I2792388
I1
tp1024
I1
s(I8073455
I1
tp1025
I0
s(I3702873
I0
tp1026
I1
s(I32128843
I1
tp1027
I1
s(I27789682
I1
tp1028
I0
s(I21956650
I1
tp1029
I1
s(I14374677
I1
tp1030
I1
s(I24622282
I0
tp1031
I1
s(I5606689
I0
tp1032
I0
s(I3318852
I1
tp1033
I1
s(I32864721
I0
tp1034
I1
s(I22909997
I1
tp1035
I1
s(I18410600
I1
tp1036
I1
s(I26063793
I0
tp1037
I0
s(I21622435
I1
tp1038
I0
s(I26004152
I1
tp1039
I1
s(I29563877
I0
tp1040
I1
s(I15650876
I0
tp1041
I1
s(I34687839
I3
tp1042
I0
s(I3895652
I1
tp1043
I0
s(I14540736
I1
tp1044
I1
s(I7605630
I1
tp1045
I1
s(I29027827
I1
tp1046
I0
s(I33605918
I0
tp1047
I0
s(I970357
I0
tp1048
I0
s(I33234319
I0
tp1049
I0
s(I14513314
I1
tp1050
I1
s(I17003542
I0
tp1051
I1
s(I17596708
I0
tp1052
I0
s(I16797418
I2
tp1053
I1
s(I16895364
I1
tp1054
I0
s(I27162998
I0
tp1055
I1
s(I12463628
I3
tp1056
I0
s(I10109770
I2
tp1057
I0
s(I19270316
I2
tp1058
I0
s(I19716510
I1
tp1059
I1
s(I35804288
I0
tp1060
I1
s(I7558371
I1
tp1061
I0
s(I10666965
I2
tp1062
I0
s(I27979526
I0
tp1063
I1
s(I28927069
I0
tp1064
I1
s(I30134105
I1
tp1065
I1
s(I35104380
I0
tp1066
I1
s(I19353473
I0
tp1067
I0
s(I1700110
I2
tp1068
I1
s(I11215684
I0
tp1069
I0
s(I6994843
I0
tp1070
I1
s(I9172621
I1
tp1071
I1
s(I36741708
I0
tp1072
I1
s(I29474365
I1
tp1073
I1
s(I3053125
I2
tp1074
I0
s(I17044086
I0
tp1075
I1
s(I4352912
I1
tp1076
I1
s(I12335438
I1
tp1077
I0
s(I36550777
I1
tp1078
I1
s(I8610517
I1
tp1079
I0
s(I8684054
I1
tp1080
I0
s(I21313983
I1
tp1081
I1
s(I12698945
I1
tp1082
I1
s(I37712305
I4
tp1083
I0
s(I26592173
I1
tp1084
I1
s(I21481598
I0
tp1085
I0
s(I23908145
I0
tp1086
I1
s(I20197566
I2
tp1087
I0
s(I31468957
I0
tp1088
I1
s(I35321999
I1
tp1089
I0
s(I2651249
I2
tp1090
I0
s(I17352572
I2
tp1091
I0
s(I21869166
I1
tp1092
I0
s(I14636901
I0
tp1093
I1
s(I21532604
I0
tp1094
I1
s(I23907556
I1
tp1095
I0
s(I21832842
I4
tp1096
I1
s(I32594433
I2
tp1097
I0
s(I14355527
I0
tp1098
I0
s(I706664
I2
tp1099
I0
s(I35222092
I0
tp1100
I1
s(I31741652
I2
tp1101
I1
s(I23478919
I1
tp1102
I0
s(I35471226
I1
tp1103
I1
s(I30843033
I0
tp1104
I1
s(I4521020
I1
tp1105
I0
s(I7008452
I3
tp1106
I0
s(I21765911
I0
tp1107
I1
s(I11104819
I0
tp1108
I0
s(I7326337
I1
tp1109
I0
s(I3579079
I3
tp1110
I0
s(I20062208
I0
tp1111
I1
s(I25428684
I1
tp1112
I0
s(I33267250
I0
tp1113
I1
s(I12265411
I0
tp1114
I1
s(I16487093
I1
tp1115
I0
s(I21286804
I1
tp1116
I1
s(I27521297
I1
tp1117
I0
s(I34121399
I2
tp1118
I0
s(I19447701
I1
tp1119
I1
s(I6810923
I1
tp1120
I0
s(I20197566
I5
tp1121
I0
s(I15808243
I1
tp1122
I1
s(I34660036
I0
tp1123
I0
s(I24855053
I1
tp1124
I1
s(I13241518
I2
tp1125
I0
s(I28339885
I2
tp1126
I1
s(I7364969
I1
tp1127
I1
s(I5479975
I1
tp1128
I1
s(I35478088
I1
tp1129
I1
s(I37405073
I0
tp1130
I1
s(I19359464
I0
tp1131
I1
s(I29254576
I0
tp1132
I0
s(I7991363
I1
tp1133
I1
s(I24375773
I3
tp1134
I0
s(I16877276
I1
tp1135
I0
s(I3932947
I1
tp1136
I1
s(I37109635
I4
tp1137
I0
s(I29407378
I0
tp1138
I1
s(I2386632
I2
tp1139
I1
s(I21731573
I1
tp1140
I1
s(I10011337
I3
tp1141
I0
s(I1627604
I1
tp1142
I1
s(I6093085
I0
tp1143
I1
s(I36583115
I0
tp1144
I1
s(I28846567
I0
tp1145
I0
s(I23821632
I0
tp1146
I1
s(I12783579
I4
tp1147
I0
s(I10019557
I0
tp1148
I1
s(I14856663
I1
tp1149
I1
s(I20707736
I0
tp1150
I0
s(I32150683
I1
tp1151
I0
s(I19499472
I1
tp1152
I1
s(I15414398
I1
tp1153
I1
s(I30494810
I6
tp1154
I0
s(I18105224
I1
tp1155
I0
s(I35471226
I0
tp1156
I1
s(I8111247
I0
tp1157
I1
s(I7364969
I10
tp1158
I1
s(I24848880
I0
tp1159
I1
s(I33156695
I0
tp1160
I1
s(I18020825
I2
tp1161
I1
s(I22783242
I0
tp1162
I1
s(I22512709
I2
tp1163
I1
s(I21740326
I1
tp1164
I0
s(I10918093
I0
tp1165
I1
s(I24657408
I1
tp1166
I0
s(I16212126
I1
tp1167
I1
s(I2507933
I0
tp1168
I0
s(I22914453
I0
tp1169
I0
s(I28628081
I0
tp1170
I1
s(I14838374
I1
tp1171
I0
s(I13523272
I0
tp1172
I0
s(I2913338
I3
tp1173
I1
s(I20096624
I1
tp1174
I1
s(I24794466
I0
tp1175
I0
s(I24035933
I3
tp1176
I0
s(I13474207
I3
tp1177
I1
s(I10011337
I4
tp1178
I0
s(I16186786
I2
tp1179
I1
s(I7116576
I3
tp1180
I0
s(I30030023
I2
tp1181
I1
s(I7745609
I0
tp1182
I0
s(I17325149
I8
tp1183
I0
s(I34314266
I1
tp1184
I0
s(I29470119
I1
tp1185
I1
s(I18747853
I0
tp1186
I1
s(I9807875
I1
tp1187
I1
s(I22052942
I1
tp1188
I1
s(I24970105
I1
tp1189
I1
s(I6524697
I2
tp1190
I1
s(I14830410
I0
tp1191
I1
s(I25140883
I1
tp1192
I1
s(I33118186
I3
tp1193
I0
s(I3332230
I1
tp1194
I0
s(I27610637
I0
tp1195
I1
s(I30356880
I6
tp1196
I0
s(I13595333
I4
tp1197
I0
s(I16668803
I0
tp1198
I1
s(I25941109
I1
tp1199
I0
s(I17707945
I0
tp1200
I1
s(I938232
I1
tp1201
I1
s(I33736317
I3
tp1202
I0
s(I2199315
I0
tp1203
I1
s(I19577349
I1
tp1204
I0
s(I11568694
I1
tp1205
I1
s(I22258390
I0
tp1206
I1
s(I3167775
I1
tp1207
I1
s(I14537280
I1
tp1208
I1
s(I26518526
I1
tp1209
I1
s(I33510248
I2
tp1210
I1
s(I35238887
I1
tp1211
I1
s(I19835090
I0
tp1212
I0
s(I17828198
I0
tp1213
I1
s(I17070859
I1
tp1214
I1
s(I25538698
I0
tp1215
I1
s(I36572728
I0
tp1216
I1
s(I26965377
I1
tp1217
I1
s(I23225721
I1
tp1218
I0
s(I27744850
I0
tp1219
I1
s(I34004813
I1
tp1220
I0
s(I37611560
I1
tp1221
I1
s(I22963994
I0
tp1222
I1
s(I14091654
I0
tp1223
I1
s(I14952911
I1
tp1224
I1
s(I19835090
I1
tp1225
I0
s(I25321698
I0
tp1226
I1
s(I1421404
I1
tp1227
I1
s(I15836482
I1
tp1228
I0
s(I3819810
I2
tp1229
I1
s(I30211424
I0
tp1230
I0
s(I18001322
I0
tp1231
I1
s(I21234177
I0
tp1232
I1
s(I15532084
I0
tp1233
I0
s(I11426911
I1
tp1234
I1
s(I6621502
I1
tp1235
I0
s(I4823208
I2
tp1236
I1
s(I6591613
I1
tp1237
I0
s(I16799445
I1
tp1238
I0
s(I3240290
I1
tp1239
I1
s(I13110356
I0
tp1240
I0
s(I23676371
I3
tp1241
I0
s(I23433143
I1
tp1242
I1
s(I18992088
I1
tp1243
I1
s(I21546809
I3
tp1244
I0
s(I33939688
I5
tp1245
I1
s(I20659137
I1
tp1246
I1
s(I16507239
I2
tp1247
I0
s(I13159227
I0
tp1248
I1
s(I11969118
I1
tp1249
I1
s(I21528762
I1
tp1250
I1
s(I19835090
I2
tp1251
I0
s(I25560497
I0
tp1252
I0
s(I2588304
I2
tp1253
I1
s(I28483426
I2
tp1254
I0
s(I19998376
I1
tp1255
I0
s(I24921796
I2
tp1256
I0
s(I192220
I7
tp1257
I0
s(I20922520
I0
tp1258
I0
s(I28277247
I0
tp1259
I1
s(I35435745
I1
tp1260
I1
s(I23626176
I1
tp1261
I0
s(I3296390
I3
tp1262
I1
s(I2884295
I0
tp1263
I1
s(I10694376
I2
tp1264
I1
s(I7112526
I0
tp1265
I1
s(I15264563
I1
tp1266
I1
s(I20358637
I3
tp1267
I0
s(I21311393
I1
tp1268
I0
s(I12989520
I1
tp1269
I1
s(I26383863
I1
tp1270
I0
s(I4017878
I1
tp1271
I1
s(I852225
I1
tp1272
I0
s(I33962020
I0
tp1273
I1
s(I31273373
I6
tp1274
I0
s(I13618078
I1
tp1275
I1
s(I37181919
I2
tp1276
I1
s(I5393244
I0
tp1277
I0
s(I9355066
I3
tp1278
I1
s(I36988239
I1
tp1279
I0
s(I12088243
I0
tp1280
I0
s(I34845881
I0
tp1281
I1
s(I12498046
I1
tp1282
I0
s(I35036298
I1
tp1283
I1
s(I12773500
I0
tp1284
I1
s(I19941944
I1
tp1285
I0
s(I29292248
I0
tp1286
I1
s(I1263780
I1
tp1287
I1
s(I8546198
I0
tp1288
I1
s(I12133106
I0
tp1289
I1
s(I11783678
I3
tp1290
I0
s(I2978700
I0
tp1291
I1
s(I9518900
I1
tp1292
I1
s(I19985833
I1
tp1293
I1
s(I18613117
I0
tp1294
I0
s(I28043394
I0
tp1295
I0
s(I29660006
I2
tp1296
I0
s(I32317079
I0
tp1297
I0
s(I37661098
I1
tp1298
I0
s(I17003542
I1
tp1299
I1
s(I26398902
I0
tp1300
I1
s(I9475177
I0
tp1301
I0
s(I10694376
I0
tp1302
I1
s(I21692871
I1
tp1303
I1
s(I8216437
I1
tp1304
I1
s(I9777457
I0
tp1305
I0
s(I21302307
I1
tp1306
I0
s(I17910415
I1
tp1307
I0
s(I16426094
I1
tp1308
I1
s(I35291850
I1
tp1309
I0
s(I22910039
I1
tp1310
I1
s(I25380801
I0
tp1311
I1
s(I19562212
I1
tp1312
I1
s(I23106523
I0
tp1313
I1
s(I29802055
I0
tp1314
I0
s(I1830015
I0
tp1315
I1
s(I8030624
I0
tp1316
I1
s(I5410918
I0
tp1317
I1
s(I13771275
I1
tp1318
I1
s(I10993189
I1
tp1319
I1
s(I25839647
I1
tp1320
I0
s(I20546039
I0
tp1321
I1
s(I34004813
I0
tp1322
I0
s(I10860452
I0
tp1323
I0
s(I27547669
I0
tp1324
I1
s(I27218389
I2
tp1325
I0
s(I10423479
I1
tp1326
I0
s(I2559110
I0
tp1327
I1
s(I24391293
I1
tp1328
I1
s(I37173392
I0
tp1329
I0
s(I25585674
I1
tp1330
I1
s(I6254626
I2
tp1331
I0
s(I36518328
I1
tp1332
I0
s(I9394879
I0
tp1333
I1
s(I12839031
I1
tp1334
I1
s(I19902526
I1
tp1335
I0
s(I19211707
I1
tp1336
I1
s(I32367084
I1
tp1337
I0
s(I33108437
I1
tp1338
I0
s(I29272756
I1
tp1339
I0
s(I6355613
I1
tp1340
I0
s(I32372280
I2
tp1341
I1
s(I11769527
I1
tp1342
I1
s(I30356880
I3
tp1343
I1
s(I21286642
I1
tp1344
I1
s(I1074529
I2
tp1345
I0
s(I1179355
I1
tp1346
I0
s(I35802709
I0
tp1347
I1
s(I15359303
I1
tp1348
I1
s(I2922856
I1
tp1349
I0
s(I25095284
I1
tp1350
I0
s(I18873251
I1
tp1351
I0
s(I14930630
I0
tp1352
I1
s(I1979522
I1
tp1353
I0
s(I4283031
I3
tp1354
I1
s(I4400347
I1
tp1355
I1
s(I34254637
I0
tp1356
I0
s(I13054785
I0
tp1357
I1
s(I37148559
I5
tp1358
I0
s(I11960289
I1
tp1359
I0
s(I10338000
I0
tp1360
I0
s(I12151979
I2
tp1361
I1
s(I8711054
I1
tp1362
I1
s(I33633660
I3
tp1363
I0
s(I12013073
I2
tp1364
I1
s(I6673667
I0
tp1365
I1
s(I22040663
I0
tp1366
I1
s(I6811449
I1
tp1367
I1
s(I26718516
I2
tp1368
I0
s(I14469652
I4
tp1369
I0
s(I25036420
I1
tp1370
I1
s(I11282433
I1
tp1371
I1
s(I21535167
I1
tp1372
I1
s(I23400658
I0
tp1373
I0
s(I11350686
I1
tp1374
I1
s(I17043777
I3
tp1375
I1
s(I19005246
I0
tp1376
I1
s(I14211346
I2
tp1377
I1
s(I10296422
I1
tp1378
I0
s(I20838921
I3
tp1379
I0
s(I4062865
I1
tp1380
I0
s(I22390896
I1
tp1381
I1
s(I35260298
I1
tp1382
I0
s(I35330341
I1
tp1383
I0
s(I5455914
I0
tp1384
I0
s(I29716952
I0
tp1385
I0
s(I27573760
I1
tp1386
I1
s(I35701321
I0
tp1387
I1
s(I27417566
I0
tp1388
I1
s(I35321999
I2
tp1389
I0
s(I37148559
I2
tp1390
I0
s(I6688196
I4
tp1391
I1
s(I17099697
I1
tp1392
I1
s(I31965908
I0
tp1393
I1
s(I25238315
I0
tp1394
I1
s(I12527563
I1
tp1395
I0
s(I11912188
I1
tp1396
I0
s(I2524600
I2
tp1397
I1
s(I13840468
I4
tp1398
I0
s(I19279889
I0
tp1399
I1
s(I14903899
I1
tp1400
I1
s(I6440318
I0
tp1401
I1
s(I20072250
I1
tp1402
I0
s(I25046224
I4
tp1403
I0
s(I12407247
I0
tp1404
I1
s(I26332939
I2
tp1405
I0
s(I11436797
I3
tp1406
I0
s(I17043777
I4
tp1407
I1
s(I12899727
I1
tp1408
I1
s(I10389260
I5
tp1409
I0
s(I29312505
I0
tp1410
I1
s(I11900470
I2
tp1411
I0
s(I19136921
I1
tp1412
I0
s(I20838921
I4
tp1413
I0
s(I2169720
I1
tp1414
I1
s(I20519532
I3
tp1415
I0
s(I4301603
I0
tp1416
I1
s(I23219081
I0
tp1417
I1
s(I21251963
I1
tp1418
I1
s(I3550497
I0
tp1419
I1
s(I26341790
I0
tp1420
I1
s(I30494810
I1
tp1421
I0
s(I37662540
I0
tp1422
I1
s(I4761507
I0
tp1423
I1
s(I26449233
I0
tp1424
I1
s(I33475700
I1
tp1425
I1
s(I31977969
I1
tp1426
I1
s(I17325149
I1
tp1427
I1
s(I24291644
I1
tp1428
I1
s(I79789
I0
tp1429
I0
s(I18513029
I0
tp1430
I1
s(I37111927
I1
tp1431
I1
s(I18920393
I5
tp1432
I0
s(I7432065
I1
tp1433
I1
s(I34876711
I2
tp1434
I0
s(I374079
I1
tp1435
I0
s(I31723200
I1
tp1436
I0
s(I726582
I2
tp1437
I0
s(I2695116
I1
tp1438
I0
s(I21977220
I3
tp1439
I0
s(I28129007
I2
tp1440
I1
s(I27381225
I2
tp1441
I0
s(I8293350
I1
tp1442
I1
s(I28278115
I1
tp1443
I1
s(I16127878
I0
tp1444
I0
s(I21969425
I1
tp1445
I1
s(I10659824
I1
tp1446
I0
s(I31478205
I3
tp1447
I1
s(I35578867
I1
tp1448
I1
s(I30437156
I1
tp1449
I0
s(I22876321
I1
tp1450
I1
s(I19680651
I0
tp1451
I1
s(I14965566
I1
tp1452
I1
s(I6227934
I0
tp1453
I1
s(I20371389
I1
tp1454
I0
s(I33483212
I0
tp1455
I1
s(I23034365
I0
tp1456
I1
s(I34696374
I0
tp1457
I1
s(I4621932
I5
tp1458
I1
s(I13003656
I1
tp1459
I1
s(I35800153
I0
tp1460
I1
s(I2900217
I1
tp1461
I1
s(I25687106
I2
tp1462
I0
s(I13832037
I1
tp1463
I1
s(I684106
I0
tp1464
I1
s(I34766139
I0
tp1465
I1
s(I22914453
I1
tp1466
I0
s(I9573470
I1
tp1467
I1
s(I1784283
I1
tp1468
I1
s(I23146750
I0
tp1469
I1
s(I28663276
I2
tp1470
I0
s(I26607450
I0
tp1471
I1
s(I23129852
I0
tp1472
I0
s(I6159814
I0
tp1473
I0
s(I3345268
I0
tp1474
I1
s(I25961419
I0
tp1475
I1
s(I13308281
I0
tp1476
I1
s(I28068971
I1
tp1477
I0
s(I19041847
I0
tp1478
I1
s(I24550681
I1
tp1479
I1
s(I33372188
I0
tp1480
I1
s(I33593080
I1
tp1481
I1
s(I6121779
I1
tp1482
I1
s(I21367807
I0
tp1483
I1
s(I1785942
I0
tp1484
I1
s(I8046345
I0
tp1485
I1
s(I4226144
I0
tp1486
I1
s(I22622841
I2
tp1487
I0
s(I7901416
I2
tp1488
I0
s(I34516501
I1
tp1489
I0
s(I802027
I0
tp1490
I1
s(I33372188
I2
tp1491
I0
s(I27251701
I4
tp1492
I0
s(I6591613
I2
tp1493
I0
s(I1858559
I0
tp1494
I1
s(I2792388
I0
tp1495
I1
s(I15445216
I1
tp1496
I0
s(I31010476
I2
tp1497
I0
s(I18547311
I2
tp1498
I1
s(I30003686
I1
tp1499
I0
s(I20935240
I0
tp1500
I0
s(I33451718
I0
tp1501
I1
s(I16372169
I0
tp1502
I0
s(I32864721
I1
tp1503
I1
s(I32928624
I1
tp1504
I0
s(I23959544
I3
tp1505
I0
s(I29827229
I2
tp1506
I0
s(I14732938
I1
tp1507
I1
s(I4257442
I2
tp1508
I0
s(I23950035
I0
tp1509
I1
s(I23992536
I0
tp1510
I1
s(I8423506
I1
tp1511
I0
s(I15706765
I1
tp1512
I1
s(I26004152
I0
tp1513
I1
s(I17598953
I1
tp1514
I0
s(I32563912
I1
tp1515
I0
s(I2769007
I1
tp1516
I0
s(I32182160
I1
tp1517
I1
s(I21669936
I0
tp1518
I1
s(I37585047
I0
tp1519
I1
s(I21167225
I1
tp1520
I0
s(I5081080
I1
tp1521
I1
s(I14296002
I2
tp1522
I0
s(I22021194
I0
tp1523
I1
s(I24636896
I3
tp1524
I1
s(I19006430
I1
tp1525
I1
s(I27055911
I0
tp1526
I0
s(I15543977
I2
tp1527
I0
s(I8073455
I0
tp1528
I1
s(I32049478
I0
tp1529
I1
s(I26167223
I1
tp1530
I1
s(I32128843
I0
tp1531
I1
s(I26430013
I1
tp1532
I0
s(I34417879
I2
tp1533
I0
s(I24622282
I1
tp1534
I1
s(I3318852
I2
tp1535
I0
s(I22909997
I0
tp1536
I1
s(I16442686
I0
tp1537
I1
s(I16330159
I0
tp1538
I1
s(I1742507
I0
tp1539
I1
s(I21259677
I1
tp1540
I0
s(I21622435
I0
tp1541
I1
s(I10979035
I1
tp1542
I0
s(I15264563
I2
tp1543
I1
s(I11227924
I0
tp1544
I1
s(I24660075
I0
tp1545
I0
s(I1410216
I1
tp1546
I0
s(I15650876
I1
tp1547
I1
s(I34687839
I2
tp1548
I0
s(I30391960
I1
tp1549
I1
s(I35354450
I0
tp1550
I0
s(I9056169
I0
tp1551
I0
s(I13474207
I2
tp1552
I1
s(I8108295
I1
tp1553
I1
s(I24316425
I1
tp1554
I1
s(I31273373
I1
tp1555
I0
s(I37712305
I2
tp1556
I0
s(I2466091
I1
tp1557
I1
s(I16895364
I2
tp1558
I1
s(I19270316
I3
tp1559
I0
s(I34908511
I1
tp1560
I0
s(I35804288
I1
tp1561
I1
s(I13967474
I0
tp1562
I1
s(I17352572
I4
tp1563
I0
s(I17057129
I1
tp1564
I0
s(I7558371
I0
tp1565
I1
s(I10666965
I1
tp1566
I0
s(I27979526
I1
tp1567
I1
s(I2781315
I1
tp1568
I1
s(I30134105
I0
tp1569
I0
s(I35104380
I1
tp1570
I1
s(I26088814
I0
tp1571
I0
s(I36650818
I2
tp1572
I1
s(I1700110
I3
tp1573
I0
s(I11215684
I1
tp1574
I1
s(I9172621
I0
tp1575
I0
s(I11097839
I1
tp1576
I1
s(I22055558
I2
tp1577
I0
s(I5182723
I0
tp1578
I1
s(I3550497
I1
tp1579
I1
s(I27876454
I0
tp1580
I1
s(I36550777
I0
tp1581
I1
s(I4986731
I1
tp1582
I1
s(I24035933
I2
tp1583
I0
s(I12698945
I0
tp1584
I1
s(I31899032
I0
tp1585
I1
s(I26592173
I0
tp1586
I1
s(I6836478
I0
tp1587
I0
s(I11463090
I0
tp1588
I1
s(I23821632
I1
tp1589
I1
s(I20197566
I3
tp1590
I0
s(I28537722
I0
tp1591
I0
s(I36057894
I1
tp1592
I1
s(I35321999
I0
tp1593
I0
s(I2651249
I1
tp1594
I0
s(I17352572
I3
tp1595
I0
s(I11445551
I1
tp1596
I0
s(I11833448
I1
tp1597
I1
s(I21532604
I1
tp1598
I0
s(I7278905
I1
tp1599
I0
s(I23907556
I2
tp1600
I0
s(I11116129
I0
tp1601
I1
s(I32594433
I1
tp1602
I0
s(I14866797
I1
tp1603
I1
s(I24939702
I2
tp1604
I0
s(I35222092
I1
tp1605
I1
s(I31424830
I0
tp1606
I1
s(I31741652
I3
tp1607
I0
s(I17558290
I2
tp1608
I0
s(I13237623
I1
tp1609
I1
s(I11419793
I1
tp1610
I0
s(I4960337
I1
tp1611
I1
s(I15002034
I0
tp1612
I1
s(I15100101
I1
tp1613
I0
s(I7326337
I0
tp1614
I1
s(I4841038
I6
tp1615
I0
s(I3579079
I2
tp1616
I0
s(I20062208
I1
tp1617
I1
s(I18251762
I0
tp1618
I1
s(I25275552
I0
tp1619
I1
s(I16487093
I0
tp1620
I1
s(I36598033
I0
tp1621
I1
s(I10209706
I0
tp1622
I1
s(I16550767
I1
tp1623
I1
s(I6810923
I0
tp1624
I1
s(I9197597
I1
tp1625
I1
s(I19499472
I0
tp1626
I0
s(I15808243
I0
tp1627
I1
s(I28675581
I4
tp1628
I0
s(I32849144
I0
tp1629
I0
s(I24855053
I0
tp1630
I1
s(I33608191
I1
tp1631
I0
s(I15964439
I4
tp1632
I0
s(I28339885
I1
tp1633
I1
s(I7364969
I0
tp1634
I0
s(I36936128
I0
tp1635
I1
s(I5479975
I0
tp1636
I1
s(I27585801
I1
tp1637
I0
s(I19359464
I1
tp1638
I1
s(I29521617
I1
tp1639
I0
s(I7246987
I3
tp1640
I0
s(I29254576
I1
tp1641
I0
s(I23507472
I0
tp1642
I1
s(I8629046
I2
tp1643
I0
s(I24375773
I2
tp1644
I1
s(I3932947
I0
tp1645
I1
s(I27585801
I0
tp1646
I1
s(I29407378
I1
tp1647
I0
s(I20146719
I1
tp1648
I1
s(I3526673
I1
tp1649
I0
s(I30174842
I1
tp1650
I1
s(I21731573
I0
tp1651
I1
s(I10011337
I2
tp1652
I0
s(I1627604
I2
tp1653
I1
s(I13068001
I1
tp1654
I1
s(I1822504
I1
tp1655
I1
s(I22055558
I0
tp1656
I0
s(I8306044
I0
tp1657
I1
s(I17325149
I9
tp1658
I0
s(I20707736
I1
tp1659
I0
s(I28152970
I0
tp1660
I1
s(I27399755
I2
tp1661
I0
s(I29254576
I2
tp1662
I0
s(I27381225
I0
tp1663
I1
s(I25579264
I0
tp1664
I1
s(I9764030
I0
tp1665
I1
s(I37270805
I0
tp1666
I1
s(I7270243
I1
tp1667
I0
s(I34251134
I1
tp1668
I1
s(I11480527
I1
tp1669
I0
s(I24848880
I1
tp1670
I0
s(I30356880
I0
tp1671
I0
s(I18020825
I1
tp1672
I0
s(I22783242
I1
tp1673
I0
s(I28371337
I0
tp1674
I1
s(I21835289
I3
tp1675
I0
s(I17707945
I1
tp1676
I1
s(I17017125
I4
tp1677
I0
s(I18534648
I0
tp1678
I1
s(I19872492
I1
tp1679
I1
s(I36433001
I1
tp1680
I1
s(I24310683
I2
tp1681
I1
s(I13523272
I1
tp1682
I1
s(I24794466
I1
tp1683
I0
s(I37064962
I0
tp1684
I1
s(I12849213
I2
tp1685
I1
s(I8718458
I0
tp1686
I1
s(I15400897
I1
tp1687
I1
s(I32427391
I1
tp1688
I1
s(I26942697
I0
tp1689
I1
s(I29470119
I0
tp1690
I1
s(I9807875
I0
tp1691
I1
s(I35478088
I2
tp1692
I0
s(I11135522
I0
tp1693
I1
s(I24970105
I0
tp1694
I0
s(I6524697
I1
tp1695
I1
s(I14830410
I1
tp1696
I0
s(I6094039
I1
tp1697
I1
s(I33118186
I0
tp1698
I0
s(I20435406
I2
tp1699
I0
s(I13595333
I3
tp1700
I0
s(I21250631
I4
tp1701
I0
s(I22986618
I0
tp1702
I0
s(I15836482
I0
tp1703
I1
s(I21384239
I1
tp1704
I1
s(I17750801
I2
tp1705
I1
s(I556509
I1
tp1706
I0
s(I19577349
I0
tp1707
I1
s(I18737626
I0
tp1708
I0
s(I22258390
I1
tp1709
I0
s(I17265080
I0
tp1710
I0
s(I3167775
I0
tp1711
I1
s(I34031494
I4
tp1712
I0
s(I35238887
I0
tp1713
I0
s(I17828198
I1
tp1714
I1
s(I11119197
I0
tp1715
I0
s(I13730484
I0
tp1716
I1
s(I17070859
I0
tp1717
I1
s(I25538698
I1
tp1718
I0
s(I36572728
I1
tp1719
I1
s(I31448656
I0
tp1720
I1
s(I3317750
I1
tp1721
I0
s(I2919168
I1
tp1722
I0
s(I22963994
I1
tp1723
I1
s(I36770316
I0
tp1724
I1
s(I14091654
I1
tp1725
I1
s(I14952911
I0
tp1726
I0
s(I25321698
I1
tp1727
I0
s(I24497436
I0
tp1728
I0
s(I10919401
I0
tp1729
I1
s(I3296390
I2
tp1730
I1
s(I20757884
I1
tp1731
I0
s(I18001322
I1
tp1732
I1
s(I20072250
I0
tp1733
I0
s(I26162762
I0
tp1734
I1
s(I26945528
I0
tp1735
I1
s(I11426911
I0
tp1736
I1
s(I4823208
I3
tp1737
I1
s(I25687106
I7
tp1738
I1
s(I16799445
I0
tp1739
I1
s(I1326701
I1
tp1740
I0
s(I22232282
I0
tp1741
I1
s(I10240035
I1
tp1742
I1
s(I13110356
I1
tp1743
I0
s(I34773830
I0
tp1744
I1
s(I6057352
I2
tp1745
I1
s(I23676371
I2
tp1746
I0
s(I23433143
I0
tp1747
I1
s(I22366810
I4
tp1748
I0
s(I21546809
I2
tp1749
I0
s(I33939688
I6
tp1750
I0
s(I7763635
I1
tp1751
I1
s(I9432630
I1
tp1752
I0
s(I10993546
I4
tp1753
I0
s(I1074529
I1
tp1754
I0
s(I19279889
I1
tp1755
I1
s(I8139699
I1
tp1756
I1
s(I22629022
I0
tp1757
I0
s(I18186212
I1
tp1758
I1
s(I2588304
I3
tp1759
I0
s(I20299075
I1
tp1760
I0
s(I19436954
I3
tp1761
I1
s(I22921153
I0
tp1762
I1
s(I27932305
I2
tp1763
I0
s(I192220
I0
tp1764
I0
s(I20922520
I1
tp1765
I1
s(I10993546
I0
tp1766
I0
s(I35435745
I0
tp1767
I0
s(I14345171
I1
tp1768
I0
s(I23626176
I2
tp1769
I1
s(I9206962
I1
tp1770
I1
s(I23303779
I1
tp1771
I0
s(I11363669
I2
tp1772
I0
s(I31659215
I1
tp1773
I1
s(I35041250
I0
tp1774
I1
s(I6616800
I0
tp1775
I1
s(I3440516
I2
tp1776
I1
s(I852225
I0
tp1777
I0
s(I33962020
I1
tp1778
I1
s(I36086980
I0
tp1779
I0
s(I25076117
I1
tp1780
I0
s(I8153000
I2
tp1781
I1
s(I9355066
I0
tp1782
I0
s(I5355585
I0
tp1783
I1
s(I36988239
I0
tp1784
I1
s(I17524409
I0
tp1785
I0
s(I12773500
I1
tp1786
I0
s(I30607214
I0
tp1787
I0
s(I33137311
I2
tp1788
I0
s(I29292248
I1
tp1789
I0
s(I1263780
I2
tp1790
I1
s(I8546198
I1
tp1791
I1
s(I1830015
I1
tp1792
I1
s(I12133106
I1
tp1793
I1
s(I16036991
I1
tp1794
I1
s(I318528
I0
tp1795
I0
s(I11783678
I0
tp1796
I1
s(I28043394
I1
tp1797
I0
s(I2401396
I0
tp1798
I0
s(I29660006
I3
tp1799
I0
s(I32317079
I3
tp1800
I0
s(I9548686
I0
tp1801
I0
s(I6127338
I0
tp1802
I1
s(I26398902
I1
tp1803
I0
s(I23924244
I0
tp1804
I1
s(I15243399
I2
tp1805
I1
s(I23219081
I1
tp1806
I1
s(I2473843
I1
tp1807
I1
s(I21692871
I0
tp1808
I1
s(I8216437
I0
tp1809
I1
s(I32962508
I0
tp1810
I1
s(I21302307
I0
tp1811
I0
s(I13277973
I1
tp1812
I1
s(I22180392
I0
tp1813
I1
s(I17910415
I0
tp1814
I0
s(I3502478
I1
tp1815
I1
s(I9755681
I1
tp1816
I1
s(I2044752
I1
tp1817
I0
s(I30003686
I3
tp1818
I0
s(I22910039
I0
tp1819
I1
s(I32615598
I0
tp1820
I1
s(I16223233
I1
tp1821
I0
s(I3821642
I2
tp1822
I0
s(I17566573
I1
tp1823
I1
s(I17163648
I0
tp1824
I1
s(I7246987
I4
tp1825
I0
s(I2781419
I2
tp1826
I0
s(I12579635
I0
tp1827
I0
s(I8046386
I5
tp1828
I0
s(I5410918
I1
tp1829
I1
s(I35508881
I1
tp1830
I1
s(I30356880
I2
tp1831
I0
s(I13771275
I0
tp1832
I1
s(I18111896
I1
tp1833
I1
s(I12085307
I1
tp1834
I1
s(I28031438
I0
tp1835
I1
s(I10993189
I0
tp1836
I1
s(I31544792
I0
tp1837
I1
s(I21640927
I1
tp1838
I1
s(I20546039
I1
tp1839
I1
s(I13419701
I0
tp1840
I1
s(I20643084
I0
tp1841
I0
s(I34082441
I2
tp1842
I1
s(I19663813
I2
tp1843
I1
s(I3296390
I1
tp1844
I0
s(I22622841
I0
tp1845
I0
s(I24391293
I0
tp1846
I1
s(I27418411
I0
tp1847
I0
s(I36518328
I2
tp1848
I0
s(I9394879
I3
tp1849
I0
s(I1809787
I2
tp1850
I1
s(I8711054
I0
tp1851
I1
s(I31273373
I2
tp1852
I0
s(I5182723
I1
tp1853
I1
s(I33108437
I0
tp1854
I1
s(I9655852
I0
tp1855
I0
s(I22366810
I3
tp1856
I0
s(I36330259
I0
tp1857
I1
s(I28611170
I2
tp1858
I0
s(I6355613
I0
tp1859
I1
s(I32372280
I3
tp1860
I0
s(I27817195
I1
tp1861
I1
s(I11769527
I0
tp1862
I1
s(I6688196
I2
tp1863
I1
s(I313962
I0
tp1864
I1
s(I30298547
I1
tp1865
I1
s(I4948269
I0
tp1866
I1
s(I1179355
I0
tp1867
I1
s(I31978339
I2
tp1868
I0
s(I15359303
I0
tp1869
I1
s(I2922856
I2
tp1870
I1
s(I15512015
I2
tp1871
I1
s(I18873251
I0
tp1872
I0
s(I17099089
I0
tp1873
I1
s(I20371389
I0
tp1874
I1
s(I21875568
I0
tp1875
I0
s(I19073500
I0
tp1876
I1
s(I37148559
I4
tp1877
I0
s(I11033340
I1
tp1878
I1
s(I11960289
I0
tp1879
I1
s(I28263926
I0
tp1880
I1
s(I27855167
I1
tp1881
I0
s(I32381393
I0
tp1882
I0
s(I10310499
I1
tp1883
I1
s(I21786302
I0
tp1884
I1
s(I12013073
I1
tp1885
I1
s(I16136119
I2
tp1886
I0
s(I15376335
I1
tp1887
I0
s(I6811449
I0
tp1888
I1
s(I11844855
I0
tp1889
I1
s(I34232471
I1
tp1890
I1
s(I14469652
I5
tp1891
I0
s(I11844855
I1
tp1892
I1
s(I11282433
I0
tp1893
I1
s(I21535167
I0
tp1894
I1
s(I23400658
I1
tp1895
I1
s(I17043777
I2
tp1896
I1
s(I19005246
I1
tp1897
I1
s(I35150739
I1
tp1898
I1
s(I14211346
I3
tp1899
I0
s(I35268549
I5
tp1900
I0
s(I20838921
I2
tp1901
I0
s(I31685845
I1
tp1902
I1
s(I4062865
I0
tp1903
I1
s(I11510950
I0
tp1904
I1
s(I6226690
I0
tp1905
I1
s(I8384688
I0
tp1906
I1
s(I5455914
I1
tp1907
I1
s(I13840468
I2
tp1908
I0
s(I30843033
I2
tp1909
I1
s(I19459274
I0
tp1910
I1
s(I33613089
I0
tp1911
I0
s(I6551214
I2
tp1912
I0
s(I27573760
I2
tp1913
I1
s(I15187839
I1
tp1914
I1
s(I36131131
I0
tp1915
I1
s(I17325149
I7
tp1916
I0
s(I26728011
I4
tp1917
I0
s(I35263742
I0
tp1918
I1
s(I4914898
I2
tp1919
I0
s(I6688196
I5
tp1920
I0
s(I17099697
I0
tp1921
I1
s(I18920393
I3
tp1922
I0
s(I31965908
I1
tp1923
I1
s(I12527563
I0
tp1924
I0
s(I11912188
I2
tp1925
I0
s(I34273934
I0
tp1926
I1
s(I25032106
I0
tp1927
I1
s(I13840468
I5
tp1928
I0
s(I29941637
I1
tp1929
I0
s(I30616479
I1
tp1930
I0
s(I14903899
I0
tp1931
I1
s(I6440318
I1
tp1932
I1
s(I25046224
I5
tp1933
I0
s(I35777522
I2
tp1934
I0
s(I14730469
I2
tp1935
I0
s(I12899727
I0
tp1936
I1
s(I36435813
I1
tp1937
I1
s(I2781419
I0
tp1938
I1
s(I22738933
I4
tp1939
I0
s(I19680651
I1
tp1940
I1
s(I2169720
I2
tp1941
I1
s(I7322330
I0
tp1942
I1
s(I34417879
I4
tp1943
I0
s(I26341790
I1
tp1944
I1
s(I18858779
I1
tp1945
I0
s(I34954765
I2
tp1946
I0
s(I30108652
I0
tp1947
I1
s(I18749306
I3
tp1948
I0
s(I31977969
I0
tp1949
I1
s(I17325149
I0
tp1950
I1
s(I24291644
I2
tp1951
I0
s(I15117826
I3
tp1952
I0
s(I34218190
I0
tp1953
I1
s(I35330341
I0
tp1954
I1
s(I19270491
I2
tp1955
I0
s(I13055295
I0
tp1956
I1
s(I11308438
I0
tp1957
I1
s(I31173730
I0
tp1958
I0
s(I37458399
I1
tp1959
I0
s(I13024512
I1
tp1960
I1
s(I2695116
I2
tp1961
I0
s(I15627299
I2
tp1962
I0
s(I28219230
I0
tp1963
I1
s(I28278115
I0
tp1964
I1
s(I16127878
I1
tp1965
I0
s(I27326723
I1
tp1966
I0
s(I16688990
I1
tp1967
I0
s(I31478205
I2
tp1968
I1
s(I18320028
I0
tp1969
I1
s(I35578867
I0
tp1970
I1
s(I22876321
I0
tp1971
I1
s(I8350660
I1
tp1972
I1
s(I33135937
I1
tp1973
I1
s(I34278143
I1
tp1974
I0
s(I11441696
I1
tp1975
I1
s(I6227934
I1
tp1976
I0
s(I19068044
I1
tp1977
I1
s(I27585801
I2
tp1978
I0
s(I24207240
I0
tp1979
I1
s(I33383829
I0
tp1980
I1
s(I21259677
I0
tp1981
I0
s(I25570210
I0
tp1982
I0
s(I2900217
I0
tp1983
I1
s(I11456664
I1
tp1984
I1
s(I25687106
I3
tp1985
I0
s(I13832037
I0
tp1986
I1
s(I14159629
I2
tp1987
I0
s(I18415438
I2
tp1988
I0
s(I11468551
I2
tp1989
I0
s(I1784283
I0
tp1990
I1
s(I30522930
I0
tp1991
I1
s(I23146750
I1
tp1992
I1
s(I28848937
I1
tp1993
I0
s(I26607450
I1
tp1994
I1
s(I182130
I2
tp1995
I0
s(I13632163
I0
tp1996
I1
s(I25992186
I0
tp1997
I0
s(I4960337
I0
tp1998
I1
s(I3345268
I1
tp1999
I0
s(I16330159
I1
tp2000
I1
s(I28068971
I0
tp2001
I0
s(I33791862
I4
tp2002
I0
s(I24550681
I0
tp2003
I1
s(I18575984
I0
tp2004
I1
s(I26548087
I1
tp2005
I0
s(I6121779
I0
tp2006
I0
s(I1785942
I1
tp2007
I0
s(I22959571
I1
tp2008
I1
s(I30392961
I1
tp2009
I0
s(I10777996
I3
tp2010
I0
s(I4226144
I1
tp2011
I1
s(I23349694
I0
tp2012
I1
s(I34516501
I0
tp2013
I1
s(I3332230
I0
tp2014
I0
s(I16136119
I1
tp2015
I1
s(I6057352
I0
tp2016
I0
s(I14838374
I2
tp2017
I0
s(I33383829
I1
tp2018
I1
s(I2045053
I1
tp2019
I1
s(I18415438
I0
tp2020
I1
s(I34309419
I1
tp2021
I0
s(I11696995
I4
tp2022
I0
s(I1326701
I0
tp2023
I0
s(I32304479
I1
tp2024
I1
s(I5355585
I2
tp2025
I0
s(I28845170
I0
tp2026
I1
s(I17102375
I1
tp2027
I1
s(I25207558
I1
tp2028
I1
s(I6434996
I1
tp2029
I0
s(I32928624
I2
tp2030
I0
s(I23959544
I4
tp2031
I0
s(I29827229
I1
tp2032
I0
s(I1742507
I1
tp2033
I1
s(I23992536
I1
tp2034
I0
s(I11404664
I0
tp2035
I1
s(I12366390
I0
tp2036
I1
s(I15706765
I0
tp2037
I1
s(I12870094
I0
tp2038
I1
s(I15387808
I1
tp2039
I1
s(I17598953
I0
tp2040
I1
s(I22742235
I1
tp2041
I0
s(I7315875
I1
tp2042
I1
s(I2769007
I0
tp2043
I0
s(I6333687
I2
tp2044
I0
s(I4429428
I0
tp2045
I1
s(I21669936
I1
tp2046
I1
s(I21167225
I0
tp2047
I0
s(I31231963
I1
tp2048
I1
s(I14296002
I3
tp2049
I0
s(I9356686
I0
tp2050
I1
s(I22021194
I1
tp2051
I1
s(I35391959
I1
tp2052
I1
s(I25547827
I1
tp2053
I1
s(I25687106
I5
tp2054
I0
s(I31072333
I1
tp2055
I0
s(I37620195
I2
tp2056
I1
s(I5331808
I0
tp2057
I1
s(I32768245
I1
tp2058
I1
s(I15543977
I1
tp2059
I0
s(I30932071
I1
tp2060
I0
s(I18749306
I0
tp2061
I0
s(I32049478
I1
tp2062
I1
s(I8451558
I0
tp2063
I0
s(I26430013
I0
tp2064
I0
s(I35869713
I2
tp2065
I0
s(I18477582
I1
tp2066
I0
s(I28566000
I0
tp2067
I1
s(I7991363
I0
tp2068
I1
s(I26102456
I0
tp2069
I1
s(I33648148
I1
tp2070
I0
s(I35361258
I1
tp2071
I1
s(I26849766
I1
tp2072
I1
s(I11227924
I1
tp2073
I1
s(I24660075
I3
tp2074
I0
s(I2355791
I1
tp2075
I1
s(I34766139
I1
tp2076
I0
s(I9197597
I0
tp2077
I1
s(I3895652
I3
tp2078
I0
s(I21765911
I1
tp2079
I1
s(I35354450
I1
tp2080
I0
s(I20783264
I0
tp2081
I1
s(I21740326
I0
tp2082
I1
s(I23963860
I0
tp2083
I0
s(I2466091
I0
tp2084
I1
s(I35822621
I1
tp2085
I1
s(I29113209
I1
tp2086
I0
s(I10109770
I0
tp2087
I1
s(I938232
I0
tp2088
I1
s(I34908511
I0
tp2089
I1
s(I13967474
I1
tp2090
I1
s(I17352572
I5
tp2091
I0
s(I18377746
I0
tp2092
I1
s(I17057129
I0
tp2093
I0
s(I11833448
I0
tp2094
I1
s(I10666965
I0
tp2095
I1
s(I2781315
I0
tp2096
I1
s(I15743183
I0
tp2097
I1
s(I33605918
I1
tp2098
I1
s(I11215684
I2
tp2099
I1
s(I32277369
I0
tp2100
I1
s(I18865590
I1
tp2101
I1
s(I895876
I0
tp2102
I1
s(I21540219
I1
tp2103
I1
s(I22468717
I2
tp2104
I1
s(I6994843
I2
tp2105
I0
s(I26313466
I0
tp2106
I1
s(I4986731
I0
tp2107
I1
s(I13791170
I0
tp2108
I1
s(I31899032
I1
tp2109
I0
s(I31565962
I0
tp2110
I1
s(I34245868
I0
tp2111
I0
s(I29923332
I1
tp2112
I0
s(I14416241
I0
tp2113
I1
s(I15002034
I1
tp2114
I0
s(I28109037
I1
tp2115
I0
s(I33897526
I2
tp2116
I0
s(I20197566
I0
tp2117
I0
s(I28537722
I1
tp2118
I0
s(I19181164
I0
tp2119
I0
s(I2651249
I0
tp2120
I0
s(I11445551
I0
tp2121
I1
s(I21409033
I0
tp2122
I1
s(I21532604
I2
tp2123
I0
s(I7278905
I0
tp2124
I0
s(I10477017
I1
tp2125
I1
s(I23907556
I3
tp2126
I0
s(I32594433
I0
tp2127
I1
s(I14849316
I1
tp2128
I1
s(I21438881
I0
tp2129
I0
s(I14866797
I0
tp2130
I1
s(I7246987
I0
tp2131
I0
s(I31424830
I1
tp2132
I1
s(I8524475
I1
tp2133
I0
s(I17558290
I3
tp2134
I0
s(I21950759
I1
tp2135
I1
s(I5795541
I1
tp2136
I1
s(I11419793
I0
tp2137
I1
s(I37109635
I1
tp2138
I0
s(I18404055
I2
tp2139
I1
s(I11793666
I0
tp2140
I1
s(I27554417
I3
tp2141
I1
s(I27832430
I0
tp2142
I1
s(I15100101
I0
tp2143
I1
s(I30174842
I0
tp2144
I0
s(I22668248
I1
tp2145
I0
s(I24633875
I1
tp2146
I1
s(I20062208
I2
tp2147
I1
s(I18251762
I1
tp2148
I1
s(I25275552
I1
tp2149
I1
s(I11292524
I2
tp2150
I1
s(I12783579
I1
tp2151
I0
s(I576071
I1
tp2152
I1
s(I17851492
I2
tp2153
I1
s(I16550767
I0
tp2154
I1
s(I33897526
I5
tp2155
I0
s(I27399755
I3
tp2156
I0
s(I12419421
I2
tp2157
I1
s(I28675581
I3
tp2158
I1
s(I10777996
I1
tp2159
I0
s(I24795288
I0
tp2160
I1
s(I33608191
I0
tp2161
I0
s(I28339885
I0
tp2162
I1
s(I7364969
I7
tp2163
I1
s(I36936128
I1
tp2164
I1
s(I35478088
I3
tp2165
I1
s(I35913338
I0
tp2166
I1
s(I29521617
I0
tp2167
I1
s(I33402664
I0
tp2168
I0
s(I37540721
I1
tp2169
I0
s(I27304683
I0
tp2170
I0
s(I24375773
I1
tp2171
I0
s(I12221037
I0
tp2172
I1
s(I20146719
I0
tp2173
I1
s(I27689846
I0
tp2174
I1
s(I35263742
I1
tp2175
I1
s(I22668248
I8
tp2176
I0
s(I10011337
I1
tp2177
I0
s(I31231963
I0
tp2178
I1
s(I7681122
I0
tp2179
I0
s(I33573890
I1
tp2180
I0
s(I28152970
I1
tp2181
I1
s(I16887108
I0
tp2182
I1
s(I25579264
I1
tp2183
I0
s(I15203058
I0
tp2184
I1
s(I9764030
I1
tp2185
I0
s(I4787104
I0
tp2186
I1
s(I29240487
I1
tp2187
I1
s(I7270243
I0
tp2188
I0
s(I31273373
I4
tp2189
I0
s(I23959544
I0
tp2190
I0
s(I11480527
I0
tp2191
I1
s(I9861297
I1
tp2192
I0
s(I14501440
I2
tp2193
I1
s(I3827025
I2
tp2194
I1
s(I18020825
I0
tp2195
I1
s(I22512709
I0
tp2196
I1
s(I19189050
I0
tp2197
I1
s(I15736503
I0
tp2198
I1
s(I10182533
I1
tp2199
I0
s(I29871937
I1
tp2200
I1
s(I36433001
I0
tp2201
I0
s(I13523272
I2
tp2202
I0
s(I36921158
I0
tp2203
I0
s(I37064962
I1
tp2204
I0
s(I37624090
I2
tp2205
I0
s(I12849213
I1
tp2206
I1
s(I34031494
I2
tp2207
I0
s(I24497436
I1
tp2208
I0
s(I19765962
I1
tp2209
I1
s(I15400897
I0
tp2210
I1
s(I32427391
I0
tp2211
I0
s(I521270
I1
tp2212
I1
s(I14313834
I0
tp2213
I0
s(I3805664
I0
tp2214
I1
s(I31281768
I2
tp2215
I0
s(I26929769
I3
tp2216
I1
s(I11135522
I1
tp2217
I1
s(I6524697
I0
tp2218
I1
s(I17925232
I0
tp2219
I0
s(I6094039
I0
tp2220
I1
s(I8014982
I0
tp2221
I1
s(I33118186
I1
tp2222
I0
s(I20435406
I3
tp2223
I0
s(I28481148
I1
tp2224
I0
s(I13595333
I2
tp2225
I1
s(I23705421
I0
tp2226
I1
s(I19985833
I0
tp2227
I0
s(I19532288
I0
tp2228
I0
s(I8718458
I1
tp2229
I1
s(I17750801
I1
tp2230
I1
s(I14056134
I1
tp2231
I0
s(I33736317
I1
tp2232
I0
s(I14841239
I1
tp2233
I0
s(I17265080
I1
tp2234
I0
s(I16688990
I4
tp2235
I0
s(I2289907
I1
tp2236
I1
s(I9414038
I1
tp2237
I1
s(I14790098
I1
tp2238
I1
s(I35238887
I3
tp2239
I1
s(I15872394
I5
tp2240
I0
s(I15034144
I0
tp2241
I1
s(I14366759
I1
tp2242
I1
s(I37181919
I0
tp2243
I1
s(I33939688
I0
tp2244
I0
s(I35295861
I2
tp2245
I1
s(I6295650
I1
tp2246
I0
s(I9432630
I0
tp2247
I0
s(I25361410
I0
tp2248
I1
s(I26929769
I4
tp2249
I0
s(I11814210
I2
tp2250
I0
s(I17703863
I0
tp2251
I1
s(I18186212
I0
tp2252
I1
s(I11117622
I0
tp2253
I1
s(I36281485
I0
tp2254
I1
s(I16962915
I0
tp2255
I1
s(I20049984
I0
tp2256
I1
s(I36770316
I1
tp2257
I1
s(I11419308
I0
tp2258
I0
s(I34005749
I1
tp2259
I1
s(I6551214
I0
tp2260
I0
s(I9630004
I0
tp2261
I1
s(I34643471
I1
tp2262
I0
s(I37084523
I1
tp2263
I1
s(I26162762
I1
tp2264
I1
s(I26945528
I1
tp2265
I0
s(I19866409
I5
tp2266
I0
s(I35661363
I1
tp2267
I1
s(I17017125
I0
tp2268
I1
s(I37270805
I1
tp2269
I1
s(I22232282
I1
tp2270
I1
s(I10240035
I0
tp2271
I1
s(I13110356
I2
tp2272
I0
s(I34773830
I1
tp2273
I1
s(I12085307
I2
tp2274
I0
s(I25522070
I0
tp2275
I0
s(I22366810
I5
tp2276
I0
s(I21546809
I1
tp2277
I0
s(I33939688
I7
tp2278
I1
s(I7763635
I0
tp2279
I1
s(I13159227
I2
tp2280
I1
s(I18359263
I1
tp2281
I1
s(I17524409
I1
tp2282
I1
s(I14374677
I0
tp2283
I1
s(I14479213
I1
tp2284
I1
s(I22629022
I1
tp2285
I0
s(I21746336
I0
tp2286
I1
s(I20401247
I2
tp2287
I0
s(I31771130
I1
tp2288
I1
s(I14253673
I0
tp2289
I1
s(I20299075
I0
tp2290
I1
s(I27932305
I1
tp2291
I0
s(I19189050
I1
tp2292
I0
s(I28483426
I0
tp2293
I1
s(I192220
I1
tp2294
I0
s(I10993546
I1
tp2295
I0
s(I14345171
I0
tp2296
I0
s(I4857837
I0
tp2297
I0
s(I35093560
I0
tp2298
I1
s(I36569182
I0
tp2299
I1
s(I5093557
I0
tp2300
I0
s(I23303779
I0
tp2301
I0
s(I11363669
I1
tp2302
I0
s(I19837655
I0
tp2303
I0
s(I31659215
I0
tp2304
I1
s(I35041250
I1
tp2305
I0
s(I26383863
I3
tp2306
I0
s(I12085307
I4
tp2307
I0
s(I14964462
I0
tp2308
I1
s(I35293084
I0
tp2309
I1
s(I13791170
I3
tp2310
I1
s(I28243845
I2
tp2311
I1
s(I7364969
I8
tp2312
I1
s(I31741652
I0
tp2313
I0
s(I15758509
I1
tp2314
I0
s(I9355066
I1
tp2315
I0
s(I34610639
I0
tp2316
I1
s(I27473908
I0
tp2317
I0
s(I29533346
I0
tp2318
I1
s(I14699703
I0
tp2319
I1
s(I31831068
I1
tp2320
I0
s(I34191191
I1
tp2321
I1
s(I32943515
I2
tp2322
I1
s(I128623
I1
tp2323
I0
s(I16036991
I0
tp2324
I1
s(I29716952
I1
tp2325
I0
s(I2199315
I1
tp2326
I1
s(I318528
I1
tp2327
I0
s(I32983858
I0
tp2328
I1
s(I18111896
I0
tp2329
I1
s(I13110356
I3
tp2330
I0
s(I4434581
I1
tp2331
I1
s(I11753269
I2
tp2332
I0
s(I29660006
I0
tp2333
I1
s(I23166266
I2
tp2334
I0
s(I9548686
I1
tp2335
I0
s(I13144230
I0
tp2336
I0
s(I37303429
I0
tp2337
I1
s(I21389431
I1
tp2338
I1
s(I29923332
I0
tp2339
I1
s(I10209706
I2
tp2340
I0
s(I35093560
I1
tp2341
I1
s(I560694
I2
tp2342
I0
s(I32962508
I1
tp2343
I1
s(I10189129
I1
tp2344
I1
s(I13277973
I0
tp2345
I1
s(I21352556
I0
tp2346
I1
s(I22180392
I1
tp2347
I1
s(I22348948
I1
tp2348
I1
s(I9394879
I5
tp2349
I0
s(I30030023
I3
tp2350
I1
s(I32112171
I1
tp2351
I1
s(I36294617
I1
tp2352
I1
s(I23470309
I1
tp2353
I1
s(I19532801
I0
tp2354
I1
s(I36468687
I1
tp2355
I0
s(I17566573
I0
tp2356
I1
s(I17163648
I1
tp2357
I0
s(I25940181
I1
tp2358
I1
s(I35508881
I0
tp2359
I1
s(I3361768
I0
tp2360
I1
s(I24116066
I1
tp2361
I0
s(I28031438
I1
tp2362
I1
s(I10196144
I0
tp2363
I1
s(I6070894
I0
tp2364
I1
s(I31544792
I1
tp2365
I1
s(I17665628
I1
tp2366
I0
s(I21640927
I0
tp2367
I1
s(I21869166
I2
tp2368
I0
s(I34082441
I1
tp2369
I0
s(I25095284
I0
tp2370
I1
s(I5081080
I0
tp2371
I1
s(I20935221
I3
tp2372
I0
s(I6254626
I0
tp2373
I1
s(I19155321
I0
tp2374
I0
s(I9394879
I2
tp2375
I0
s(I34876711
I0
tp2376
I1
s(I8527731
I1
tp2377
I1
s(I9655852
I1
tp2378
I1
s(I24669926
I0
tp2379
I0
s(I27817195
I0
tp2380
I0
s(I33050763
I1
tp2381
I0
s(I5803133
I2
tp2382
I0
s(I21250631
I2
tp2383
I0
s(I313962
I1
tp2384
I1
s(I30298547
I0
tp2385
I1
s(I2922856
I3
tp2386
I0
s(I26208027
I1
tp2387
I1
s(I13840468
I1
tp2388
I0
s(I15428168
I0
tp2389
I1
s(I21875568
I1
tp2390
I1
s(I34221483
I1
tp2391
I0
s(I19073500
I1
tp2392
I1
s(I23892604
I0
tp2393
I1
s(I28263926
I1
tp2394
I1
s(I19748723
I1
tp2395
I1
s(I27855167
I0
tp2396
I1
s(I23803359
I1
tp2397
I1
s(I21786302
I1
tp2398
I0
s(I20028832
I0
tp2399
I0
s(I23151081
I1
tp2400
I1
s(I16186786
I0
tp2401
I1
s(I12013073
I0
tp2402
I1
s(I8128360
I0
tp2403
I0
s(I15376335
I0
tp2404
I1
s(I11762700
I1
tp2405
I0
s(I13234818
I0
tp2406
I0
s(I34232471
I0
tp2407
I1
s(I14469652
I6
tp2408
I0
s(I3053125
I0
tp2409
I0
s(I19307842
I1
tp2410
I1
s(I2945765
I1
tp2411
I1
s(I17043777
I1
tp2412
I0
s(I14211346
I0
tp2413
I1
s(I35268549
I4
tp2414
I0
s(I20838921
I1
tp2415
I1
s(I35640282
I0
tp2416
I0
s(I11510950
I1
tp2417
I1
s(I14442822
I0
tp2418
I0
s(I6226690
I1
tp2419
I0
s(I31855759
I1
tp2420
I0
s(I8384688
I1
tp2421
I1
s(I29716952
I2
tp2422
I0
s(I19459274
I1
tp2423
I0
s(I29272756
I2
tp2424
I0
s(I27916519
I0
tp2425
I1
s(I16093468
I1
tp2426
I0
s(I18749306
I2
tp2427
I0
s(I15187839
I0
tp2428
I1
s(I5171809
I1
tp2429
I1
s(I17325149
I6
tp2430
I0
s(I18920393
I4
tp2431
I1
s(I34722021
I4
tp2432
I0
s(I26729494
I2
tp2433
I0
s(I4914898
I3
tp2434
I0
s(I26046622
I0
tp2435
I1
s(I35361258
I2
tp2436
I0
s(I17535389
I1
tp2437
I0
s(I18920393
I2
tp2438
I1
s(I5992308
I1
tp2439
I0
s(I14372302
I1
tp2440
I1
s(I11912188
I3
tp2441
I0
s(I29276354
I0
tp2442
I1
s(I34273934
I1
tp2443
I1
s(I13840468
I6
tp2444
I0
s(I29941637
I0
tp2445
I1
s(I30616479
I0
tp2446
I0
s(I32633252
I0
tp2447
I1
s(I20358637
I1
tp2448
I0
s(I35183616
I0
tp2449
I1
s(I31333228
I0
tp2450
I1
s(I15420689
I1
tp2451
I0
s(I10121680
I2
tp2452
I0
s(I10813098
I0
tp2453
I1
s(I11114638
I2
tp2454
I0
s(I32437153
I1
tp2455
I1
s(I18858779
I0
tp2456
I1
s(I34954765
I1
tp2457
I0
s(I4761507
I2
tp2458
I1
s(I32719239
I0
tp2459
I1
s(I29489036
I0
tp2460
I1
s(I23594298
I0
tp2461
I1
s(I12050795
I2
tp2462
I1
s(I36989059
I1
tp2463
I1
s(I15117826
I0
tp2464
I0
s(I34218190
I1
tp2465
I0
s(I5111728
I0
tp2466
I1
s(I26607450
I7
tp2467
I0
s(I11308438
I1
tp2468
I0
s(I33085816
I0
tp2469
I1
s(I37458399
I0
tp2470
I1
s(I726582
I0
tp2471
I0
s(I2695116
I3
tp2472
I0
s(I28805092
I0
tp2473
I0
s(I25687106
I1
tp2474
I0
s(I9237650
I0
tp2475
I1
s(I28219230
I1
tp2476
I1
s(I33791862
I2
tp2477
I0
s(I28371337
I1
tp2478
I1
s(I18904109
I1
tp2479
I0
s(I27326723
I0
tp2480
I1
s(I12160776
I0
tp2481
I1
s(I31478205
I1
tp2482
I1
s(I33541995
I1
tp2483
I1
s(I18320028
I1
tp2484
I1
s(I6691865
I1
tp2485
I1
s(I21136618
I0
tp2486
I0
s(I33135937
I0
tp2487
I1
s(I12544051
I1
tp2488
I1
s(I34278143
I0
tp2489
I1
s(I35840854
I0
tp2490
I1
s(I19068044
I2
tp2491
I1
s(I22668248
I0
tp2492
I0
s(I35011175
I0
tp2493
I1
s(I24207240
I1
tp2494
I0
s(I10797333
I1
tp2495
I1
s(I29141134
I1
tp2496
I1
s(I25570210
I1
tp2497
I0
s(I26019476
I0
tp2498
I1
s(I15436509
I1
tp2499
I0
s(I3005323
I1
tp2500
I0
s(I6621502
I2
tp2501
I0
s(I33791094
I0
tp2502
I1
s(I33267250
I1
tp2503
I1
s(I28848937
I0
tp2504
I1
s(I28061347
I1
tp2505
I1
s(I363084
I1
tp2506
I1
s(I14732938
I4
tp2507
I0
s(I25992186
I1
tp2508
I0
s(I4841038
I4
tp2509
I0
s(I18187989
I2
tp2510
I1
s(I28068971
I3
tp2511
I0
s(I28698635
I0
tp2512
I1
s(I15387808
I0
tp2513
I1
s(I26548087
I0
tp2514
I1
s(I34435022
I0
tp2515
I1
s(I8256892
I0
tp2516
I1
s(I22959571
I0
tp2517
I1
s(I30392961
I0
tp2518
I1
s(I23349694
I1
tp2519
I1
s(I13474207
I0
tp2520
I1
s(I3296390
I0
tp2521
I0
s(I13862099
I1
tp2522
I1
s(I2045053
I0
tp2523
I1
s(I25687106
I4
tp2524
I0
s(I34309419
I0
tp2525
I0
s(I9288893
I2
tp2526
I0
s(I13173833
I0
tp2527
I1
s(I32304479
I0
tp2528
I0
s(I27521297
I0
tp2529
I0
s(I28845170
I1
tp2530
I0
s(I12875040
I1
tp2531
I1
s(I7274514
I0
tp2532
I0
s(I8327616
I0
tp2533
I1
s(I17102375
I0
tp2534
I1
s(I20935240
I2
tp2535
I0
s(I14540917
I1
tp2536
I1
s(I23959544
I5
tp2537
I0
s(I9623187
I0
tp2538
I0
s(I4257442
I0
tp2539
I1
s(I5380843
I1
tp2540
I0
s(I28243845
I1
tp2541
I1
s(I11404664
I1
tp2542
I0
s(I6536396
I1
tp2543
I0
s(I12366390
I1
tp2544
I1
s(I12730070
I0
tp2545
I1
s(I4400347
I0
tp2546
I1
s(I9429371
I1
tp2547
I1
s(I22228967
I1
tp2548
I0
s(I7315875
I0
tp2549
I1
s(I4429428
I1
tp2550
I0
s(I15066914
I1
tp2551
I0
s(I14296002
I0
tp2552
I0
s(I9356686
I1
tp2553
I1
s(I35391959
I0
tp2554
I1
s(I1344697
I1
tp2555
I0
s(I30205573
I0
tp2556
I0
s(I25547827
I0
tp2557
I1
s(I24342739
I1
tp2558
I0
s(I29598252
I0
tp2559
I0
s(I15543977
I0
tp2560
I1
s(I30932071
I0
tp2561
I1
s(I18749306
I1
tp2562
I0
s(I15237740
I0
tp2563
I1
s(I14565788
I0
tp2564
I1
s(I4459902
I1
tp2565
I0
s(I28566000
I1
tp2566
I1
s(I556509
I0
tp2567
I1
s(I10666965
I6
tp2568
I0
s(I23828906
I0
tp2569
I1
s(I26607450
I2
tp2570
I0
s(I15117826
I2
tp2571
I0
s(I33428932
I0
tp2572
I1
s(I18992088
I0
tp2573
I1
s(I8806028
I0
tp2574
I1
s(I11227924
I2
tp2575
I0
s(I2355791
I0
tp2576
I1
s(I13789442
I0
tp2577
I1
s(I16797418
I0
tp2578
I0
s(I28846567
I2
tp2579
I1
s(I13080106
I1
tp2580
I1
s(I14206236
I0
tp2581
I1
s(I32150683
I0
tp2582
I1
s(I1747745
I0
tp2583
I0
s(I1410216
I0
tp2584
I0
s(I20783264
I1
tp2585
I1
s(I10670090
I1
tp2586
I1
s(I19690325
I0
tp2587
I0
s(I37712305
I0
tp2588
I0
s(I23963860
I1
tp2589
I0
s(I35822621
I0
tp2590
I1
s(I12818621
I1
tp2591
I0
s(I29113209
I0
tp2592
I0
s(I18777437
I2
tp2593
I0
s(I10109770
I1
tp2594
I1
s(I6174355
I0
tp2595
I0
s(I12579635
I1
tp2596
I1
s(I18377746
I1
tp2597
I1
s(I26227103
I1
tp2598
I1
s(I16223233
I2
tp2599
I0
s(I16914206
I0
tp2600
I1
s(I8578252
I0
tp2601
I1
s(I16874590
I2
tp2602
I1
s(I30494810
I4
tp2603
I0
s(I36650818
I0
tp2604
I1
s(I9630859
I1
tp2605
I0
s(I11215684
I3
tp2606
I0
s(I22399836
I0
tp2607
I1
s(I12250195
I1
tp2608
I0
s(I895876
I1
tp2609
I0
s(I1712077
I0
tp2610
I1
s(I21540219
I0
tp2611
I1
s(I16685165
I1
tp2612
I1
s(I25734598
I0
tp2613
I0
s(I26313466
I1
tp2614
I1
s(I12335438
I4
tp2615
I0
s(I13791170
I1
tp2616
I1
s(I32095863
I0
tp2617
I0
s(I33470158
I0
tp2618
I1
s(I31565962
I1
tp2619
I1
s(I14400023
I1
tp2620
I0
s(I19663813
I1
tp2621
I1
s(I37148559
I1
tp2622
I0
s(I28147528
I1
tp2623
I1
s(I28109037
I0
tp2624
I1
s(I33897526
I3
tp2625
I0
s(I27399755
I0
tp2626
I0
s(I27476006
I1
tp2627
I1
s(I19181164
I1
tp2628
I0
s(I32697433
I4
tp2629
I0
s(I8046386
I2
tp2630
I0
s(I3526673
I0
tp2631
I1
s(I10777996
I0
tp2632
I0
s(I21532604
I3
tp2633
I0
s(I18359263
I0
tp2634
I1
s(I7112526
I1
tp2635
I0
s(I32933497
I1
tp2636
I1
s(I14849316
I2
tp2637
I1
s(I24939702
I0
tp2638
I1
s(I1069311
I1
tp2639
I0
s(I8524475
I0
tp2640
I1
s(I3317750
I0
tp2641
I1
s(I21950759
I0
tp2642
I0
s(I5795541
I0
tp2643
I1
s(I10121680
I4
tp2644
I0
s(I37109635
I0
tp2645
I0
s(I13730484
I1
tp2646
I0
s(I4971561
I0
tp2647
I1
s(I11793666
I1
tp2648
I1
s(I22724852
I0
tp2649
I1
s(I27554417
I2
tp2650
I1
s(I26167223
I0
tp2651
I1
s(I22668248
I2
tp2652
I0
s(I1207740
I0
tp2653
I1
s(I24633875
I0
tp2654
I0
s(I29932394
I0
tp2655
I1
s(I12456897
I0
tp2656
I1
s(I8718458
I2
tp2657
I1
s(I32241284
I0
tp2658
I0
s(I12783579
I0
tp2659
I0
s(I6267954
I0
tp2660
I1
s(I3675616
I0
tp2661
I1
s(I576071
I0
tp2662
I1
s(I29619943
I1
tp2663
I0
s(I22861123
I1
tp2664
I0
s(I20197566
I8
tp2665
I0
s(I14286714
I1
tp2666
I1
s(I12419421
I1
tp2667
I0
s(I32849144
I2
tp2668
I0
s(I16877276
I0
tp2669
I1
s(I24795288
I1
tp2670
I1
s(I7364969
I6
tp2671
I1
s(I5479975
I2
tp2672
I1
s(I35478088
I4
tp2673
I0
s(I27112737
I2
tp2674
I1
s(I27379264
I1
tp2675
I0
s(I29883190
I2
tp2676
I0
s(I35913338
I1
tp2677
I0
s(I15208232
I1
tp2678
I0
s(I37540721
I0
tp2679
I1
s(I15736503
I1
tp2680
I0
s(I27304683
I3
tp2681
I1
s(I24375773
I0
tp2682
I1
s(I22914453
I4
tp2683
I0
s(I30577660
I0
tp2684
I1
s(I27689846
I1
tp2685
I1
s(I22668248
I9
tp2686
I0
s(I10011337
I0
tp2687
I1
s(I28663276
I1
tp2688
I0
s(I2788575
I0
tp2689
I1
s(I7681122
I1
tp2690
I0
s(I28619830
I0
tp2691
I1
s(I36741708
I1
tp2692
I0
s(I29169309
I1
tp2693
I0
s(I16887108
I1
tp2694
I1
s(I15203058
I1
tp2695
I0
s(I27004031
I1
tp2696
I1
s(I4787104
I1
tp2697
I1
s(I24438529
I3
tp2698
I0
s(I29240487
I0
tp2699
I1
s(I11480527
I3
tp2700
I1
s(I9861297
I0
tp2701
I0
s(I28481148
I0
tp2702
I1
s(I3827025
I1
tp2703
I1
s(I12530027
I1
tp2704
I0
s(I1146012
I1
tp2705
I1
s(I21835289
I1
tp2706
I0
s(I23470309
I0
tp2707
I1
s(I34486588
I0
tp2708
I1
s(I29871937
I0
tp2709
I1
s(I30857779
I1
tp2710
I0
s(I17017125
I2
tp2711
I0
s(I4773206
I0
tp2712
I1
s(I26001924
I0
tp2713
I1
s(I36921158
I1
tp2714
I0
s(I16688990
I2
tp2715
I0
s(I37624090
I3
tp2716
I1
s(I12849213
I0
tp2717
I1
s(I9414038
I0
tp2718
I0
s(I34031494
I3
tp2719
I0
s(I35238887
I5
tp2720
I0
s(I34875353
I2
tp2721
I1
s(I32427391
I3
tp2722
I1
s(I37009235
I1
tp2723
I1
s(I22205060
I1
tp2724
I1
s(I20954662
I1
tp2725
I1
s(I3805664
I1
tp2726
I1
s(I31281768
I3
tp2727
I0
s(I26285750
I2
tp2728
I0
s(I1019661
I2
tp2729
I0
s(I26929769
I2
tp2730
I1
s(I6934563
I1
tp2731
I0
s(I21302307
I2
tp2732
I0
s(I27682228
I0
tp2733
I0
s(I17925232
I1
tp2734
I0
s(I31186960
I0
tp2735
I1
s(I20435406
I0
tp2736
I0
s(I9789395
I0
tp2737
I1
s(I13595333
I1
tp2738
I0
s(I14446303
I1
tp2739
I1
s(I19532288
I1
tp2740
I1
s(I20551358
I0
tp2741
I0
s(I17750801
I0
tp2742
I1
s(I19866409
I3
tp2743
I0
s(I15302356
I0
tp2744
I0
s(I9394879
I4
tp2745
I0
s(I23608624
I0
tp2746
I1
s(I14841239
I0
tp2747
I0
s(I2289907
I0
tp2748
I1
s(I32526207
I0
tp2749
I1
s(I9218949
I2
tp2750
I1
s(I35238887
I2
tp2751
I0
s(I15872394
I2
tp2752
I0
s(I15034144
I1
tp2753
I1
s(I24310683
I1
tp2754
I1
s(I14366759
I0
tp2755
I1
s(I33939688
I1
tp2756
I1
s(I23124414
I2
tp2757
I1
s(I17129510
I5
tp2758
I0
s(I25361410
I1
tp2759
I1
s(I23959544
I1
tp2760
I0
s(I18764988
I0
tp2761
I1
s(I11117622
I1
tp2762
I1
s(I20049984
I1
tp2763
I0
s(I30404402
I0
tp2764
I1
s(I21311393
I3
tp2765
I0
s(I11419308
I1
tp2766
I0
s(I22986618
I1
tp2767
I1
s(I34005749
I0
tp2768
I1
s(I15208232
I0
tp2769
I1
s(I34643471
I0
tp2770
I1
s(I23369574
I0
tp2771
I1
s(I3819810
I1
tp2772
I1
s(I5760020
I0
tp2773
I1
s(I37084523
I0
tp2774
I1
s(I7994408
I1
tp2775
I1
s(I33648148
I2
tp2776
I1
s(I35575481
I1
tp2777
I0
s(I19866409
I4
tp2778
I1
s(I34612343
I1
tp2779
I1
s(I35661363
I0
tp2780
I0
s(I27571493
I1
tp2781
I1
s(I379556
I0
tp2782
I1
s(I3426560
I0
tp2783
I1
s(I12879550
I0
tp2784
I1
s(I27107093
I0
tp2785
I0
s(I8669703
I1
tp2786
I1
s(I13791170
I2
tp2787
I1
s(I21400367
I0
tp2788
I1
s(I22366810
I2
tp2789
I0
s(I21546809
I0
tp2790
I1
s(I33939688
I8
tp2791
I0
s(I11033340
I0
tp2792
I1
s(I17255338
I0
tp2793
I1
s(I34610639
I1
tp2794
I0
s(I18107553
I1
tp2795
I0
s(I14479213
I0
tp2796
I1
s(I15559090
I1
tp2797
I0
s(I2461579
I0
tp2798
I0
s(I22697790
I1
tp2799
I1
s(I31643835
I1
tp2800
I1
s(I17670284
I0
tp2801
I1
s(I27932305
I0
tp2802
I0
s(I28483426
I1
tp2803
I1
s(I192220
I2
tp2804
I0
s(I2640048
I0
tp2805
I1
s(I31273373
I0
tp2806
I1
s(I13471159
I1
tp2807
I0
s(I30977821
I5
tp2808
I0
s(I23116249
I1
tp2809
I0
s(I21746336
I1
tp2810
I1
s(I36569182
I1
tp2811
I1
s(I23151241
I1
tp2812
I1
s(I11363669
I0
tp2813
I1
s(I12815194
I0
tp2814
I1
s(I26383863
I2
tp2815
I1
s(I3891758
I0
tp2816
I0
s(I14964462
I1
tp2817
I1
s(I20830315
I1
tp2818
I0
s(I35293084
I1
tp2819
I1
s(I21841623
I1
tp2820
I1
s(I35361258
I0
tp2821
I1
s(I21400367
I1
tp2822
I1
s(I30263295
I0
tp2823
I0
s(I15758509
I0
tp2824
I1
s(I3886340
I0
tp2825
I1
s(I17596708
I1
tp2826
I0
s(I16186786
I1
tp2827
I0
s(I27473908
I1
tp2828
I1
s(I32332145
I1
tp2829
I0
s(I29533346
I1
tp2830
I1
s(I12419854
I1
tp2831
I0
s(I7246987
I1
tp2832
I0
s(I34191191
I0
tp2833
I1
s(I10035769
I1
tp2834
I1
s(I8001083
I2
tp2835
I1
s(I318528
I2
tp2836
I0
s(I32983858
I1
tp2837
I1
s(I3053125
I1
tp2838
I0
s(I33087355
I0
tp2839
I0
s(I9015870
I0
tp2840
I1
s(I4434581
I0
tp2841
I1
s(I11753269
I1
tp2842
I0
s(I29660006
I1
tp2843
I0
s(I23166266
I3
tp2844
I0
s(I27309001
I0
tp2845
I1
s(I17535389
I2
tp2846
I0
s(I21389431
I0
tp2847
I1
s(I1858559
I1
tp2848
I1
s(I12823575
I1
tp2849
I1
s(I24035933
I1
tp2850
I0
s(I13024512
I2
tp2851
I1
s(I31720854
I0
tp2852
I0
s(I9432630
I3
tp2853
I0
s(I32962508
I2
tp2854
I1
s(I10189129
I0
tp2855
I1
s(I21352556
I1
tp2856
I1
s(I17910415
I2
tp2857
I0
s(I10025996
I0
tp2858
I1
s(I20510051
I0
tp2859
I1
s(I8110165
I1
tp2860
I0
s(I34876711
I1
tp2861
I0
s(I3609687
I2
tp2862
I1
s(I32832623
I1
tp2863
I0
s(I32112171
I0
tp2864
I1
s(I36294617
I0
tp2865
I1
s(I11852951
I0
tp2866
I1
s(I17073134
I0
tp2867
I1
s(I5719384
I1
tp2868
I0
s(I3821642
I0
tp2869
I1
s(I26682614
I1
tp2870
I1
s(I13678718
I0
tp2871
I1
s(I25940181
I0
tp2872
I1
s(I3482194
I2
tp2873
I0
s(I3361768
I1
tp2874
I1
s(I10196144
I1
tp2875
I0
s(I18277282
I0
tp2876
I1
s(I6070894
I1
tp2877
I0
s(I29065148
I0
tp2878
I1
s(I25292138
I0
tp2879
I1
s(I13840468
I0
tp2880
I0
s(I22697790
I0
tp2881
I1
s(I11097839
I2
tp2882
I0
s(I23507472
I1
tp2883
I0
s(I34082441
I0
tp2884
I1
s(I27916519
I1
tp2885
I1
s(I12248899
I1
tp2886
I1
s(I20935221
I2
tp2887
I1
s(I6254626
I1
tp2888
I1
s(I18799810
I0
tp2889
I1
s(I1154702
I1
tp2890
I1
s(I9919278
I0
tp2891
I1
s(I21977220
I0
tp2892
I0
s(I26682614
I0
tp2893
I1
s(I32565311
I1
tp2894
I1
s(I21270528
I0
tp2895
I0
s(I13173833
I1
tp2896
I1
s(I16053425
I2
tp2897
I0
s(I24669926
I1
tp2898
I0
s(I17703863
I1
tp2899
I1
s(I36425557
I2
tp2900
I0
s(I8645254
I0
tp2901
I1
s(I33346218
I0
tp2902
I1
s(I24610143
I1
tp2903
I0
s(I16216129
I2
tp2904
I1
s(I36435813
I0
tp2905
I1
s(I15428168
I1
tp2906
I1
s(I24287463
I1
tp2907
I1
s(I8015482
I2
tp2908
I1
s(I34221483
I0
tp2909
I1
s(I13054785
I5
tp2910
I0
s(I26728011
I1
tp2911
I1
s(I23892604
I1
tp2912
I1
s(I19748723
I0
tp2913
I1
s(I27855167
I3
tp2914
I0
s(I23803359
I0
tp2915
I1
s(I22452123
I3
tp2916
I0
s(I3702873
I1
tp2917
I0
s(I23151081
I0
tp2918
I1
s(I14501440
I0
tp2919
I1
s(I8128360
I1
tp2920
I0
s(I17875720
I0
tp2921
I1
s(I33831023
I0
tp2922
I0
s(I26718516
I0
tp2923
I0
s(I34242338
I0
tp2924
I1
s(I25046224
I0
tp2925
I1
s(I21313983
I2
tp2926
I1
s(I34712380
I0
tp2927
I1
s(I11350686
I4
tp2928
I1
s(I17043777
I0
tp2929
I1
s(I21832842
I3
tp2930
I0
s(I14211346
I1
tp2931
I1
s(I35268549
I3
tp2932
I0
s(I10121680
I1
tp2933
I1
s(I20838921
I0
tp2934
I1
s(I30239227
I1
tp2935
I0
s(I28679208
I0
tp2936
I1
s(I31855759
I0
tp2937
I1
s(I5292145
I1
tp2938
I1
s(I13377997
I1
tp2939
I1
s(I31281768
I1
tp2940
I0
s(I30494810
I5
tp2941
I0
s(I18651768
I2
tp2942
I0
s(I8030624
I1
tp2943
I1
s(I18404055
I0
tp2944
I1
s(I5171809
I0
tp2945
I1
s(I33020243
I1
tp2946
I1
s(I17025457
I0
tp2947
I1
s(I34722021
I3
tp2948
I0
s(I4914898
I0
tp2949
I0
s(I26046622
I1
tp2950
I1
s(I15117826
I6
tp2951
I1
s(I27309001
I1
tp2952
I1
s(I36330259
I1
tp2953
I0
s(I7260488
I0
tp2954
I1
s(I29276354
I1
tp2955
I0
s(I25319348
I0
tp2956
I0
s(I13840468
I7
tp2957
I1
s(I20304400
I0
tp2958
I1
s(I36909436
I0
tp2959
I1
s(I30616479
I3
tp2960
I0
s(I32633252
I1
tp2961
I1
s(I7392374
I0
tp2962
I1
s(I20358637
I0
tp2963
I0
s(I35183616
I1
tp2964
I0
s(I35777522
I0
tp2965
I1
s(I31333228
I1
tp2966
I1
s(I10389260
I0
tp2967
I1
s(I12839031
I0
tp2968
I1
s(I15420689
I0
tp2969
I0
s(I36510415
I0
tp2970
I1
s(I17025457
I1
tp2971
I1
s(I15448705
I1
tp2972
I1
s(I28544816
I0
tp2973
I1
s(I29652394
I2
tp2974
I0
s(I10813098
I1
tp2975
I1
s(I32437153
I0
tp2976
I0
s(I18858779
I3
tp2977
I0
s(I34954765
I0
tp2978
I1
s(I29141134
I0
tp2979
I1
s(I25687106
I6
tp2980
I0
s(I29489036
I1
tp2981
I0
s(I23594298
I1
tp2982
I0
s(I36989059
I0
tp2983
I1
s(I439138
I2
tp2984
I0
s(I37111927
I2
tp2985
I0
s(I6836478
I1
tp2986
I0
s(I5111728
I1
tp2987
I1
s(I29759568
I0
tp2988
I0
s(I19270491
I4
tp2989
I0
s(I26607450
I4
tp2990
I0
s(I33085816
I1
tp2991
I1
s(I726582
I1
tp2992
I0
s(I4841038
I2
tp2993
I0
s(I30906021
I2
tp2994
I1
s(I9237650
I1
tp2995
I1
s(I28278115
I2
tp2996
I1
s(I24194784
I0
tp2997
I1
s(I7905182
I0
tp2998
I1
s(I12590682
I1
tp2999
I0
s(I12160776
I1
tp3000
I0
s(I13901809
I1
tp3001
I0
s(I31478205
I0
tp3002
I1
s(I33541995
I0
tp3003
I1
s(I19939624
I1
tp3004
I1
s(I6691865
I0
tp3005
I1
s(I603504
I0
tp3006
I0
s(I31944662
I2
tp3007
I1
s(I21136618
I1
tp3008
I0
s(I33573890
I2
tp3009
I0
s(I13474207
I1
tp3010
I1
s(I27789682
I3
tp3011
I0
s(I34786699
I1
tp3012
I0
s(I18420123
I1
tp3013
I1
s(I24207240
I2
tp3014
I0
s(I10797333
I0
tp3015
I1
s(I4621932
I0
tp3016
I1
s(I6745525
I1
tp3017
I0
s(I6814563
I1
tp3018
I0
s(I26019476
I1
tp3019
I0
s(I15436509
I0
tp3020
I1
s(I36598033
I1
tp3021
I1
s(I3005323
I0
tp3022
I0
s(I14610658
I0
tp3023
I1
s(I28243845
I0
tp3024
I1
s(I25543723
I1
tp3025
I0
s(I2563918
I0
tp3026
I1
s(I34508028
I0
tp3027
I1
s(I33791094
I1
tp3028
I0
s(I20401247
I1
tp3029
I1
s(I182130
I0
tp3030
I1
s(I18187989
I1
tp3031
I1
s(I28068971
I2
tp3032
I0
s(I24920949
I2
tp3033
I0
s(I34435022
I1
tp3034
I1
s(I8256892
I1
tp3035
I1
s(I37247507
I1
tp3036
I0
s(I12063841
I2
tp3037
I1
s(I9581458
I0
tp3038
I1
s(I2746331
I1
tp3039
I1
s(I11456664
I0
tp3040
I1
s(I30191802
I1
tp3041
I1
s(I16184493
I1
tp3042
I1
s(I10121680
I3
tp3043
I0
s(I18669731
I1
tp3044
I0
s(I34309419
I3
tp3045
I0
s(I9288893
I1
tp3046
I0
s(I34340729
I0
tp3047
I0
s(I31173730
I2
tp3048
I0
s(I18575984
I1
tp3049
I1
s(I1341505
I0
tp3050
I0
s(I33149080
I0
tp3051
I1
s(I7274514
I1
tp3052
I0
s(I4459902
I0
tp3053
I1
s(I8327616
I1
tp3054
I1
s(I5606689
I3
tp3055
I0
s(I14540917
I0
tp3056
I1
s(I30843033
I1
tp3057
I1
s(I4257442
I1
tp3058
I1
s(I5380843
I0
tp3059
I0
s(I2473843
I2
tp3060
I1
s(I22393469
I2
tp3061
I1
s(I26906460
I0
tp3062
I1
s(I34353369
I2
tp3063
I1
s(I12730070
I1
tp3064
I1
s(I22742235
I3
tp3065
I0
s(I6295231
I1
tp3066
I1
s(I9429371
I0
tp3067
I1
s(I26208027
I0
tp3068
I1
s(I12456897
I1
tp3069
I1
s(I22228967
I0
tp3070
I0
s(I21281481
I1
tp3071
I1
s(I4429428
I2
tp3072
I0
s(I4459902
I2
tp3073
I1
s(I18629310
I1
tp3074
I1
s(I14296002
I1
tp3075
I0
s(I970357
I3
tp3076
I0
s(I35391959
I3
tp3077
I1
s(I16184493
I0
tp3078
I1
s(I13128635
I1
tp3079
I1
s(I13103114
I0
tp3080
I1
s(I24342739
I0
tp3081
I0
s(I13068001
I0
tp3082
I1
s(I20792891
I1
tp3083
I0
s(I15237740
I1
tp3084
I1
s(I23091177
I1
tp3085
I1
s(I12463628
I0
tp3086
I1
s(I35869713
I0
tp3087
I1
s(I14675304
I0
tp3088
I1
s(I20250357
I2
tp3089
I0
s(I30607214
I1
tp3090
I0
s(I5606689
I4
tp3091
I0
s(I31444591
I1
tp3092
I1
s(I10164354
I0
tp3093
I1
s(I20794860
I0
tp3094
I1
s(I10666965
I5
tp3095
I1
s(I23828906
I1
tp3096
I0
s(I19163959
I1
tp3097
I1
s(I33428932
I1
tp3098
I1
s(I37181919
I1
tp3099
I1
s(I14636287
I1
tp3100
I0
s(I951401
I0
tp3101
I1
s(I8806028
I1
tp3102
I1
s(I15616638
I0
tp3103
I1
s(I8610517
I0
tp3104
I0
s(I14790098
I0
tp3105
I1
s(I13789442
I1
tp3106
I1
s(I23552848
I0
tp3107
I1
s(I14206236
I1
tp3108
I1
s(I17113532
I0
tp3109
I1
s(I34786699
I4
tp3110
I1
s(I25652248
I0
tp3111
I1
s(I24035933
I6
tp3112
I0
s(I36478669
I1
tp3113
I0
s(I33372188
I1
tp3114
I0
s(I14961787
I1
tp3115
I0
s(I17890157
I2
tp3116
I1
s(I23963860
I2
tp3117
I0
s(I32985768
I0
tp3118
I0
s(I22544486
I0
tp3119
I1
s(I5462205
I0
tp3120
I1
s(I18777437
I1
tp3121
I1
s(I15414398
I2
tp3122
I0
s(I27399755
I1
tp3123
I0
s(I9623187
I3
tp3124
I0
s(I32958815
I2
tp3125
I0
s(I31468957
I3
tp3126
I0
s(I32697433
I2
tp3127
I0
s(I18757944
I0
tp3128
I1
s(I26227103
I0
tp3129
I0
s(I24833153
I1
tp3130
I0
s(I37685156
I0
tp3131
I1
s(I11168749
I1
tp3132
I1
s(I16914206
I1
tp3133
I1
s(I8578252
I1
tp3134
I1
s(I25916350
I0
tp3135
I1
s(I32802567
I1
tp3136
I1
s(I36650818
I1
tp3137
I1
s(I4062845
I1
tp3138
I0
s(I33087355
I1
tp3139
I1
s(I22399836
I1
tp3140
I1
s(I33451718
I1
tp3141
I1
s(I12250195
I0
tp3142
I0
s(I18404055
I7
tp3143
I0
s(I16685165
I0
tp3144
I1
s(I14675304
I2
tp3145
I1
s(I30877040
I1
tp3146
I0
s(I25390857
I2
tp3147
I0
s(I28752104
I0
tp3148
I1
s(I12221037
I1
tp3149
I1
s(I33470158
I1
tp3150
I0
s(I14400023
I0
tp3151
I0
s(I19663813
I0
tp3152
I1
s(I34121399
I1
tp3153
I0
s(I16143769
I2
tp3154
I0
s(I29782934
I1
tp3155
I0
s(I33897526
I0
tp3156
I0
s(I20197566
I6
tp3157
I0
s(I19181164
I2
tp3158
I1
s(I8046386
I3
tp3159
I0
s(I2401396
I1
tp3160
I1
s(I33608191
I5
tp3161
I0
s(I26102456
I1
tp3162
I0
s(I35903825
I1
tp3163
I0
s(I79789
I1
tp3164
I0
s(I32933497
I0
tp3165
I1
s(I36535515
I1
tp3166
I1
s(I27876454
I1
tp3167
I1
s(I14730469
I0
tp3168
I0
s(I24939702
I1
tp3169
I1
s(I10666965
I3
tp3170
I0
s(I10477017
I0
tp3171
I1
s(I17558290
I1
tp3172
I0
s(I10121680
I5
tp3173
I0
s(I29776360
I2
tp3174
I1
s(I15541196
I0
tp3175
I1
s(I29487482
I0
tp3176
I1
s(I22724852
I1
tp3177
I1
s(I27554417
I1
tp3178
I1
s(I13345583
I1
tp3179
I1
s(I22668248
I3
tp3180
I0
s(I1207740
I1
tp3181
I1
s(I29628590
I0
tp3182
I1
s(I29932394
I1
tp3183
I0
s(I22668248
I6
tp3184
I0
s(I30141267
I1
tp3185
I1
s(I32241284
I1
tp3186
I1
s(I12783579
I3
tp3187
I0
s(I6267954
I1
tp3188
I1
s(I3675616
I1
tp3189
I0
s(I3084672
I0
tp3190
I1
s(I29619943
I0
tp3191
I1
s(I6127338
I1
tp3192
I1
s(I13024512
I0
tp3193
I1
s(I22861123
I0
tp3194
I1
s(I24707125
I1
tp3195
I1
s(I16426039
I0
tp3196
I1
s(I12419421
I0
tp3197
I0
s(I35574490
I2
tp3198
I0
s(I28675581
I1
tp3199
I1
s(I13237623
I0
tp3200
I1
s(I13234818
I1
tp3201
I0
s(I33608191
I2
tp3202
I0
s(I15964439
I1
tp3203
I0
s(I7364969
I5
tp3204
I1
s(I35478088
I5
tp3205
I1
s(I29883190
I3
tp3206
I1
s(I9459554
I0
tp3207
I1
s(I14730469
I1
tp3208
I1
s(I27304683
I2
tp3209
I0
s(I22914453
I3
tp3210
I0
s(I11696995
I0
tp3211
I1
s(I17340363
I1
tp3212
I0
s(I30577660
I1
tp3213
I1
s(I19582702
I0
tp3214
I1
s(I25207558
I0
tp3215
I1
s(I11844855
I2
tp3216
I1
s(I13377997
I0
tp3217
I0
s(I31720854
I3
tp3218
I0
s(I4038960
I1
tp3219
I1
s(I13406949
I0
tp3220
I1
s(I30030023
I1
tp3221
I1
s(I713960
I1
tp3222
I1
s(I30652021
I1
tp3223
I1
s(I11097839
I0
tp3224
I1
s(I29169309
I0
tp3225
I1
s(I20954662
I0
tp3226
I1
s(I22134638
I1
tp3227
I1
s(I9432630
I2
tp3228
I0
s(I4866013
I2
tp3229
I1
s(I16887108
I2
tp3230
I1
s(I25579264
I3
tp3231
I0
s(I18547311
I1
tp3232
I1
s(I27004031
I0
tp3233
I1
s(I14746540
I1
tp3234
I0
s(I18629310
I0
tp3235
I1
s(I24438529
I2
tp3236
I0
s(I9056169
I1
tp3237
I1
s(I11480527
I2
tp3238
I1
s(I28986618
I0
tp3239
I1
s(I3827025
I0
tp3240
I1
s(I13537347
I1
tp3241
I1
s(I29802055
I2
tp3242
I0
s(I18415438
I1
tp3243
I1
s(I12530027
I0
tp3244
I1
s(I21835289
I0
tp3245
I0
s(I34486588
I1
tp3246
I1
s(I26494428
I0
tp3247
I1
s(I37316901
I1
tp3248
I1
s(I4773206
I1
tp3249
I1
s(I14501440
I1
tp3250
I1
s(I26001924
I1
tp3251
I1
s(I6680228
I0
tp3252
I0
s(I16962915
I1
tp3253
I0
s(I25259434
I1
tp3254
I1
s(I16688990
I3
tp3255
I0
s(I1822504
I0
tp3256
I1
s(I30211424
I1
tp3257
I0
s(I34031494
I0
tp3258
I0
s(I18885583
I1
tp3259
I1
s(I35238887
I4
tp3260
I0
s(I26804962
I0
tp3261
I1
s(I27379264
I0
tp3262
I1
s(I34875353
I1
tp3263
I1
s(I32427391
I2
tp3264
I0
s(I1479831
I1
tp3265
I1
s(I37009235
I0
tp3266
I1
s(I11119197
I4
tp3267
I0
s(I31281768
I4
tp3268
I0
s(I2461579
I1
tp3269
I0
s(I1019661
I1
tp3270
I0
s(I4038960
I0
tp3271
I1
s(I26929769
I1
tp3272
I0
s(I30458856
I0
tp3273
I1
s(I27682228
I1
tp3274
I0
s(I32615598
I1
tp3275
I1
s(I31186960
I1
tp3276
I1
s(I20435406
I1
tp3277
I0
s(I13595333
I0
tp3278
I0
s(I14286714
I0
tp3279
I1
s(I14446303
I0
tp3280
I1
s(I19532288
I2
tp3281
I0
s(I7994408
I0
tp3282
I0
s(I19866409
I2
tp3283
I1
s(I11852951
I1
tp3284
I0
s(I25076117
I2
tp3285
I0
s(I24040926
I1
tp3286
I1
s(I29318004
I0
tp3287
I1
s(I23608624
I1
tp3288
I1
s(I9218949
I1
tp3289
I0
s(I15872394
I3
tp3290
I0
s(I16223233
I0
tp3291
I0
s(I14372302
I0
tp3292
I1
s(I5943678
I1
tp3293
I0
s(I5719384
I0
tp3294
I1
s(I33939688
I2
tp3295
I0
s(I35295861
I0
tp3296
I1
s(I16507239
I1
tp3297
I0
s(I26429966
I0
tp3298
I1
s(I30977821
I0
tp3299
I1
s(I2183107
I1
tp3300
I0
s(I29716952
I3
tp3301
I1
s(I31533615
I1
tp3302
I1
s(I11814210
I0
tp3303
I1
s(I6418214
I2
tp3304
I0
s(I18764988
I1
tp3305
I1
s(I33381751
I1
tp3306
I1
s(I19329816
I1
tp3307
I0
s(I22872278
I1
tp3308
I1
s(I363084
I2
tp3309
I0
s(I33258020
I0
tp3310
I1
s(I11419308
I2
tp3311
I0
s(I192220
I4
tp3312
I0
s(I14313834
I1
tp3313
I0
s(I3951413
I1
tp3314
I1
s(I23369574
I1
tp3315
I0
s(I10787043
I1
tp3316
I0
s(I5760020
I1
tp3317
I1
s(I23116249
I2
tp3318
I0
s(I35575481
I0
tp3319
I1
s(I34612343
I0
tp3320
I0
s(I12251993
I1
tp3321
I0
s(I27571493
I0
tp3322
I1
s(I29645733
I1
tp3323
I0
s(I9403894
I1
tp3324
I1
s(I379556
I1
tp3325
I0
s(I23705421
I1
tp3326
I1
s(I32985768
I2
tp3327
I0
s(I3426560
I1
tp3328
I1
s(I12879550
I1
tp3329
I1
s(I1074529
I3
tp3330
I0
s(I8669703
I0
tp3331
I1
s(I33437351
I1
tp3332
I1
s(I27563140
I1
tp3333
I0
s(I33367569
I0
tp3334
I1
s(I16291075
I1
tp3335
I1
s(I36468687
I0
tp3336
I1
s(I17325149
I5
tp3337
I0
s(I10532323
I0
tp3338
I1
s(I37303429
I1
tp3339
I1
s(I17255338
I1
tp3340
I0
s(I18107553
I0
tp3341
I1
s(I6673667
I1
tp3342
I1
s(I18852505
I1
tp3343
I1
s(I31643835
I0
tp3344
I1
s(I30578605
I1
tp3345
I0
s(I7364969
I9
tp3346
I1
s(I27166043
I1
tp3347
I1
s(I17670284
I1
tp3348
I0
s(I6814426
I0
tp3349
I1
s(I13003656
I0
tp3350
I1
s(I192220
I3
tp3351
I0
s(I23908145
I1
tp3352
I1
s(I2640048
I1
tp3353
I1
s(I13471159
I0
tp3354
I1
s(I18747853
I1
tp3355
I1
s(I560694
I0
tp3356
I0
s(I18920393
I1
tp3357
I0
s(I6057352
I1
tp3358
I0
s(I23151241
I0
tp3359
I1
s(I9127317
I0
tp3360
I1
s(I12815194
I1
tp3361
I1
s(I37661098
I0
tp3362
I1
s(I9475177
I3
tp3363
I0
s(I32053653
I0
tp3364
I1
s(I26718516
I1
tp3365
I0
s(I12063841
I1
tp3366
I1
s(I20830315
I0
tp3367
I1
s(I21280605
I1
tp3368
I0
s(I30003686
I2
tp3369
I0
s(I21841623
I0
tp3370
I1
s(I9581458
I1
tp3371
I1
s(I36086980
I3
tp3372
I1
s(I10199927
I1
tp3373
I1
s(I13632163
I1
tp3374
I1
s(I30263295
I3
tp3375
I0
s(I3886340
I1
tp3376
I1
s(I17340363
I2
tp3377
I0
s(I23176321
I2
tp3378
I0
s(I9419615
I2
tp3379
I0
s(I21302307
I3
tp3380
I0
s(I22537662
I0
tp3381
I1
s(I14168940
I0
tp3382
I0
s(I32332145
I0
tp3383
I1
s(I9630859
I0
tp3384
I0
s(I5355585
I1
tp3385
I0
s(I10035769
I0
tp3386
I1
s(I30977821
I1
tp3387
I0
s(I37691287
I1
tp3388
I1
s(I14856663
I2
tp3389
I0
s(I9015870
I1
tp3390
I1
s(I11753269
I0
tp3391
I0
s(I31132669
I1
tp3392
I1
s(I23166266
I0
tp3393
I0
s(I30934830
I1
tp3394
I1
s(I22668248
I7
tp3395
I0
s(I21389431
I3
tp3396
I1
s(I31143856
I0
tp3397
I1
s(I12823575
I0
tp3398
I1
s(I20637482
I1
tp3399
I1
s(I31771130
I0
tp3400
I1
s(I4589157
I1
tp3401
I1
s(I31720854
I1
tp3402
I0
s(I13758033
I0
tp3403
I1
s(I25585674
I2
tp3404
I1
s(I17810221
I1
tp3405
I1
s(I19998376
I0
tp3406
I1
s(I10025996
I1
tp3407
I0
s(I20510051
I3
tp3408
I1
s(I27512053
I1
tp3409
I0
s(I19902526
I2
tp3410
I0
s(I11852951
I3
tp3411
I0
s(I35700944
I0
tp3412
I1
s(I4301603
I1
tp3413
I1
s(I28840985
I1
tp3414
I1
s(I684106
I1
tp3415
I1
s(I36377860
I2
tp3416
I1
s(I19356906
I0
tp3417
I0
s(I5290418
I0
tp3418
I0
s(I13678718
I1
tp3419
I1
s(I24082669
I2
tp3420
I1
s(I19053225
I1
tp3421
I0
s(I1074529
I0
tp3422
I0
s(I24012213
I2
tp3423
I0
s(I10196144
I2
tp3424
I0
s(I29065148
I1
tp3425
I0
s(I25292138
I1
tp3426
I1
s(I1979522
I2
tp3427
I0
s(I16442686
I1
tp3428
I1
s(I21977220
I1
tp3429
I0
s(I30099821
I1
tp3430
I1
s(I13054785
I3
tp3431
I0
s(I24287463
I0
tp3432
I0
s(I16930761
I1
tp3433
I1
s(I12085307
I0
tp3434
I1
s(I12248899
I0
tp3435
I1
s(I20935221
I1
tp3436
I0
s(I31273373
I3
tp3437
I0
s(I13545617
I1
tp3438
I1
s(I18799810
I1
tp3439
I1
s(I12593776
I1
tp3440
I1
s(I22184025
I2
tp3441
I1
s(I9919278
I1
tp3442
I1
s(I12151979
I1
tp3443
I0
s(I20546039
I2
tp3444
I1
s(I33633660
I0
tp3445
I0
s(I15448705
I0
tp3446
I1
s(I32565311
I0
tp3447
I1
s(I26942697
I1
tp3448
I0
s(I21270528
I1
tp3449
I1
s(I17129510
I1
tp3450
I0
s(I19256123
I1
tp3451
I0
s(I13234818
I3
tp3452
I0
s(I35753972
I3
tp3453
I0
s(I31722522
I1
tp3454
I1
s(I36425557
I1
tp3455
I0
s(I22055558
I1
tp3456
I0
s(I11350686
I2
tp3457
I1
s(I33050763
I3
tp3458
I0
s(I5803133
I0
tp3459
I1
s(I24040834
I0
tp3460
I1
s(I14672688
I0
tp3461
I1
s(I16426039
I1
tp3462
I1
s(I539942
I1
tp3463
I1
s(I24610143
I0
tp3464
I0
s(I16216129
I1
tp3465
I0
s(I19968525
I0
tp3466
I0
s(I28082687
I1
tp3467
I0
s(I22184025
I0
tp3468
I1
s(I15720109
I1
tp3469
I0
s(I31281768
I0
tp3470
I0
s(I14792677
I0
tp3471
I1
s(I10139181
I0
tp3472
I1
s(I22738933
I2
tp3473
I0
s(I18404055
I1
tp3474
I0
s(I13054785
I4
tp3475
I1
s(I17325149
I11
tp3476
I0
s(I26728011
I0
tp3477
I1
s(I24372541
I1
tp3478
I0
s(I1853433
I0
tp3479
I0
s(I27855167
I2
tp3480
I1
s(I23803359
I3
tp3481
I0
s(I22452123
I2
tp3482
I0
s(I23676371
I4
tp3483
I0
s(I27251701
I1
tp3484
I0
s(I36535515
I0
tp3485
I1
s(I2473843
I0
tp3486
I1
s(I15376335
I2
tp3487
I1
s(I22921153
I1
tp3488
I1
s(I34242338
I1
tp3489
I0
s(I25046224
I1
tp3490
I0
s(I34712380
I1
tp3491
I1
s(I31840220
I0
tp3492
I1
s(I21832842
I0
tp3493
I1
s(I24082669
I1
tp3494
I0
s(I35268549
I2
tp3495
I0
s(I30003686
I0
tp3496
I0
s(I20838921
I7
tp3497
I0
s(I30239227
I0
tp3498
I1
s(I20519532
I0
tp3499
I0
s(I28679208
I1
tp3500
I0
s(I18708680
I0
tp3501
I0
s(I30494810
I2
tp3502
I0
s(I18644056
I1
tp3503
I1
s(I6551214
I1
tp3504
I0
s(I33020243
I0
tp3505
I1
s(I17325149
I4
tp3506
I0
s(I10860452
I2
tp3507
I0
s(I34722021
I2
tp3508
I0
s(I26729494
I0
tp3509
I1
s(I6688196
I0
tp3510
I1
s(I29721968
I1
tp3511
I1
s(I18920393
I0
tp3512
I0
s(I23478919
I0
tp3513
I1
s(I18724492
I0
tp3514
I0
s(I7260488
I1
tp3515
I1
s(I4598659
I1
tp3516
I1
s(I28129007
I1
tp3517
I0
s(I20304400
I1
tp3518
I1
s(I36909436
I1
tp3519
I1
s(I12175474
I1
tp3520
I1
s(I30616479
I2
tp3521
I0
s(I16507239
I4
tp3522
I0
s(I2411210
I0
tp3523
I1
s(I35647425
I1
tp3524
I0
s(I35777522
I1
tp3525
I0
s(I34353369
I1
tp3526
I1
s(I19939624
I0
tp3527
I1
s(I10389260
I1
tp3528
I0
s(I11019847
I1
tp3529
I1
s(I22738933
I1
tp3530
I0
s(I20838921
I8
tp3531
I1
s(I14965566
I2
tp3532
I0
s(I13410246
I0
tp3533
I1
s(I21646708
I0
tp3534
I1
s(I37088208
I0
tp3535
I1
s(I23096845
I0
tp3536
I1
s(I11114638
I0
tp3537
I1
s(I18499562
I0
tp3538
I1
s(I18858779
I2
tp3539
I0
s(I14285554
I1
tp3540
I0
s(I14469652
I3
tp3541
I0
s(I36909436
I2
tp3542
I0
s(I6031181
I1
tp3543
I0
s(I28397342
I0
tp3544
I0
s(I6536396
I0
tp3545
I1
s(I9573470
I2
tp3546
I1
s(I30245181
I0
tp3547
I0
s(I29759568
I1
tp3548
I0
s(I26607450
I5
tp3549
I0
s(I19752084
I1
tp3550
I0
s(I37458399
I2
tp3551
I1
s(I4841038
I3
tp3552
I0
s(I10670090
I0
tp3553
I1
s(I9419615
I1
tp3554
I0
s(I33791862
I0
tp3555
I0
s(I7905182
I1
tp3556
I1
s(I24910861
I2
tp3557
I1
s(I6404158
I0
tp3558
I1
s(I17325149
I10
tp3559
I0
s(I13901809
I0
tp3560
I1
s(I603504
I1
tp3561
I0
s(I3891758
I1
tp3562
I0
s(I15117826
I1
tp3563
I0
s(I18922620
I0
tp3564
I1
s(I1341505
I1
tp3565
I0
s(I18420123
I0
tp3566
I1
s(I8337138
I0
tp3567
I0
s(I11847584
I0
tp3568
I1
s(I4621932
I1
tp3569
I1
s(I15150057
I1
tp3570
I1
s(I6745525
I0
tp3571
I0
s(I6814563
I0
tp3572
I1
s(I32096616
I0
tp3573
I1
s(I16053425
I1
tp3574
I1
s(I14610658
I1
tp3575
I1
s(I7557231
I1
tp3576
I1
s(I11329936
I1
tp3577
I1
s(I2563918
I1
tp3578
I1
s(I2930768
I0
tp3579
I1
s(I34508028
I1
tp3580
I1
s(I8306044
I1
tp3581
I0
s(I4225984
I2
tp3582
I0
s(I19101688
I0
tp3583
I1
s(I20401247
I0
tp3584
I0
s(I14732938
I2
tp3585
I1
s(I10330898
I0
tp3586
I1
s(I24726688
I0
tp3587
I1
s(I18187989
I0
tp3588
I1
s(I28068971
I5
tp3589
I0
s(I24920949
I1
tp3590
I1
s(I20551358
I2
tp3591
I0
s(I29645733
I0
tp3592
I1
s(I20757884
I2
tp3593
I0
s(I11436797
I0
tp3594
I1
s(I32880727
I1
tp3595
I0
s(I23106523
I1
tp3596
I1
s(I36402026
I0
tp3597
I1
s(I11900470
I1
tp3598
I1
s(I13183568
I0
tp3599
I0
s(I36057894
I0
tp3600
I1
s(I2746331
I0
tp3601
I1
s(I24636896
I0
tp3602
I1
s(I27251701
I0
tp3603
I0
s(I18669731
I0
tp3604
I1
s(I28805092
I1
tp3605
I0
s(I34309419
I2
tp3606
I1
s(I36239016
I0
tp3607
I0
s(I9288893
I0
tp3608
I0
s(I15834569
I2
tp3609
I0
s(I23807485
I2
tp3610
I1
s(I18749306
I4
tp3611
I0
s(I33149080
I1
tp3612
I0
s(I26711455
I0
tp3613
I1
s(I16490625
I1
tp3614
I1
s(I10277115
I0
tp3615
I1
s(I22452123
I1
tp3616
I0
s(I8276553
I1
tp3617
I1
s(I26381169
I0
tp3618
I1
s(I35640282
I1
tp3619
I0
s(I5380843
I3
tp3620
I0
s(I22393469
I1
tp3621
I0
s(I26906460
I1
tp3622
I1
s(I29446361
I1
tp3623
I0
s(I22742235
I2
tp3624
I0
s(I34687839
I1
tp3625
I0
s(I21281481
I0
tp3626
I1
s(I32288840
I1
tp3627
I1
s(I31173730
I1
tp3628
I1
s(I970357
I2
tp3629
I0
s(I19718193
I1
tp3630
I1
s(I35391959
I2
tp3631
I1
s(I25547827
I2
tp3632
I1
s(I15948208
I0
tp3633
I1
s(I4971561
I1
tp3634
I0
s(I24779447
I1
tp3635
I0
s(I24275420
I1
tp3636
I1
s(I23963860
I4
tp3637
I0
s.