(dp0
I28486144
I1
sI5470210
I1
sI34005931
I2
sI6669828
I1
sI30053381
I1
sI3214345
I1
sI28515850
I2
sI3654669
I2
sI34238994
I2
sI16380419
I2
sI37004309
I2
sI3748356
I1
sI34447387
I2
sI1596963
I1
sI36983845
I2
sI21955116
I2
sI22048314
I2
sI7996479
I2
sI9633346
I1
sI1979234
I2
sI7870041
I1
sI28886107
I1
sI32017850
I2
sI20295774
I1
sI6184037
I2
sI31795302
I2
sI21195366
I1
sI31027305
I1
sI28734064
I1
sI20524146
I1
sI25507443
I2
sI30695034
I1
sI25887357
I1
sI31162560
I1
sI7478403
I2
sI3687046
I2
sI25705612
I1
sI36242061
I1
sI25621134
I1
sI28639085
I2
sI32723600
I2
sI11821203
I2
sI22694038
I1
sI23305241
I1
sI19222955
I2
sI37126814
I2
sI7958213
I1
sI26892451
I2
sI20922024
I1
sI37399209
I2
sI12336302
I2
sI28838064
I1
sI12522678
I1
sI22091977
I1
sI36185272
I2
sI30432714
I2
sI36362432
I1
sI12387521
I1
sI18608834
I2
sI10282693
I1
sI31886022
I2
sI28210889
I2
sI33289931
I2
sI20039872
I1
sI19526871
I2
sI29179100
I2
sI4882655
I1
sI34121958
I2
sI10234599
I1
sI16087272
I2
sI21785833
I2
sI17641195
I1
sI25071859
I1
sI23478297
I1
sI13223163
I2
sI5535996
I1
sI9460992
I1
sI11435209
I2
sI22446617
I2
sI24611077
I2
sI35766034
I1
sI21248276
I1
sI12432663
I1
sI31431449
I2
sI2771739
I1
sI3109150
I1
sI30452000
I1
sI35569956
I1
sI31756166
I2
sI13419815
I2
sI27308840
I1
sI25455922
I1
sI18062135
I1
sI35142969
I2
sI35171133
I2
sI18308417
I2
sI16167746
I1
sI26321731
I1
sI8634700
I2
sI36461901
I2
sI5306703
I2
sI20118864
I1
sI21005146
I2
sI963932
I2
sI20283229
I1
sI28985184
I2
sI23772514
I2
sI9589092
I2
sI28409189
I2
sI20950247
I2
sI3744108
I1
sI25452434
I2
sI30191987
I2
sI9686900
I1
sI35126136
I1
sI30739322
I1
sI17975165
I2
sI212358
I1
sI16142218
I1
sI37151117
I1
sI13709710
I2
sI36814226
I2
sI8966979
I2
sI27504021
I2
sI2681243
I1
sI19507101
I2
sI31161243
I2
sI3287974
I2
sI2790825
I1
sI29084587
I2
sI26291123
I2
sI36976567
I2
sI8651705
I2
sI21739450
I1
sI8321525
I2
sI23559626
I1
sI4736470
I2
sI32596440
I2
sI1269242
I2
sI26453595
I1
sI25202147
I2
sI35796965
I1
sI34309098
I2
sI22701035
I2
sI2964460
I1
sI21892080
I1
sI32814578
I2
sI20224501
I1
sI22604282
I1
sI27725310
I2
s.