(dp0
I23210498
I2
sI29008389
I1
sI17411594
I2
sI17611351
I1
sI7199245
I1
sI14736916
I1
sI12512282
I2
sI27833885
I1
sI12129310
I2
sI26079267
I1
sI37354535
I2
sI10367580
I1
sI1333803
I3
sI3373100
I1
sI11062330
I1
sI29676608
I1
sI8083524
I1
sI36951649
I1
sI27670091
I2
sI7689292
I2
sI19822068
I2
sI553038
I1
sI28726352
I1
sI10798161
I1
sI3358290
I2
sI35549267
I2
sI16587863
I2
sI26827356
I1
sI18216033
I2
sI2518631
I1
sI33244265
I1
sI16245867
I1
sI8534127
I2
sI36249713
I2
sI14051443
I2
sI9859702
I1
sI21313660
I1
sI1474687
I1
sI25106053
I2
sI32791687
I1
sI13027471
I1
sI24786066
I2
sI21646488
I1
sI21392025
I1
sI20740764
I2
sI27555999
I2
sI929440
I1
sI21375651
I5
sI19235493
I1
sI13555825
I1
sI16030378
I1
sI13232302
I1
sI15821999
I3
sI15524532
I1
sI14935223
I1
sI22556856
I1
sI31086778
I3
sI4491965
I1
sI26300607
I2
sI17240768
I2
sI26515649
I1
sI634568
I1
sI2613451
I1
sI37525198
I1
sI35506383
I2
sI24857810
I1
sI16461011
I1
sI9043159
I1
sI1693400
I3
sI32624345
I1
sI10019038
I2
sI20343521
I2
sI12420835
I2
sI10702204
I1
sI33584167
I2
sI20643052
I1
sI31926510
I2
sI7467247
I1
sI23356144
I2
sI18540788
I1
sI25591035
I1
sI14151934
I3
sI22500610
I1
sI23640328
I4
sI18661932
I2
sI11159255
I2
sI10075405
I3
sI13117710
I1
sI18875153
I1
sI24242465
I1
sI18556586
I1
sI22940636
I2
sI18117936
I1
sI33920478
I1
sI28555575
I1
sI26842426
I1
sI34404157
I3
sI23497542
I1
sI29939751
I1
sI26189659
I1
sI10225503
I1
sI13803875
I1
sI3883365
I1
sI19322733
I2
sI26130802
I1
sI19666293
I1
sI24814967
I1
sI33345402
I1
sI18778492
I1
sI17163648
I1
sI21635970
I1
sI30474627
I1
sI7611782
I3
sI23755147
I1
sI10834830
I2
sI22273426
I2
sI21698456
I2
sI13894559
I2
sI30577569
I1
sI23372706
I2
sI8030118
I1
sI2584492
I1
sI19450285
I2
sI19335600
I2
sI32879032
I1
sI957172
I2
sI1722299
I1
sI20548030
I1
sI6524352
I2
sI17078209
I2
sI14703043
I1
sI34258885
I2
sI15576524
I1
sI34003927
I1
sI24454616
I1
sI6427097
I1
sI26879964
I2
sI30044855
I1
sI25044447
I2
sI36672481
I1
sI20004326
I1
sI17413096
I1
sI23757803
I1
sI36183534
I1
sI21387248
I1
sI21274098
I2
sI23863284
I2
sI18296310
I1
sI7198203
I1
sI4809386
I2
s.